

Microchip MPLAB XC8 Assembler V2.32 build 20210201212658 
                                                                                               Wed Sep 08 17:37:23 2021

Microchip MPLAB XC8 C Compiler v2.32 (Free license) build 20210201212658 Og1 
     1                           	processor	16F1827
     2                           	pagewidth 120
     3                           	opt	flic
     4                           	psect	cinit,global,class=CODE,merge=1,delta=2
     5                           	psect	bssBANK0,global,class=BANK0,space=1,delta=1,noexec
     6                           	psect	bssBANK1,global,class=BANK1,space=1,delta=1,noexec
     7                           	psect	cstackCOMMON,global,class=COMMON,space=1,delta=1,noexec
     8                           	psect	cstackBANK0,global,class=BANK0,space=1,delta=1,noexec
     9                           	psect	maintext,global,class=CODE,merge=1,split=1,delta=2
    10                           	psect	text1,local,class=CODE,merge=1,delta=2
    11                           	psect	text2,local,class=CODE,merge=1,delta=2
    12                           	psect	text3,local,class=CODE,merge=1,delta=2
    13                           	psect	text4,local,class=CODE,merge=1,delta=2
    14                           	psect	text5,local,class=CODE,merge=1,delta=2
    15                           	psect	text6,local,class=CODE,merge=1,delta=2
    16                           	psect	text7,local,class=CODE,merge=1,delta=2
    17                           	psect	text8,local,class=CODE,merge=1,delta=2
    18                           	psect	text9,local,class=CODE,merge=1,delta=2
    19                           	psect	text10,local,class=CODE,merge=1,delta=2
    20                           	psect	text11,local,class=CODE,merge=1,delta=2
    21                           	psect	text12,local,class=CODE,merge=1,delta=2
    22                           	psect	text13,local,class=CODE,merge=1,delta=2
    23                           	psect	text14,local,class=CODE,merge=1,delta=2
    24                           	psect	text15,local,class=CODE,merge=1,delta=2,group=1
    25                           	psect	text16,local,class=CODE,merge=1,delta=2,group=1
    26                           	psect	text17,local,class=CODE,merge=1,delta=2
    27                           	psect	text18,local,class=CODE,merge=1,delta=2,group=1
    28                           	psect	text19,local,class=CODE,merge=1,delta=2,group=1
    29                           	psect	text20,local,class=CODE,merge=1,delta=2,group=1
    30                           	psect	text21,local,class=CODE,merge=1,delta=2,group=1
    31                           	psect	text22,local,class=CODE,merge=1,delta=2
    32                           	psect	text23,local,class=CODE,merge=1,delta=2
    33                           	psect	text24,local,class=CODE,merge=1,delta=2
    34                           	psect	text25,local,class=CODE,merge=1,delta=2
    35                           	psect	text26,local,class=CODE,merge=1,delta=2
    36                           	psect	text27,local,class=CODE,merge=1,delta=2
    37                           	psect	config,global,abs,ovrld,class=CONFIG,space=4,delta=2,noexec
    38                           	dabs	1,0x7E,2
    39  0000                     
    40                           ; Version 2.20
    41                           ; Generated 12/02/2020 GMT
    42                           ; 
    43                           ; Copyright © 2020, Microchip Technology Inc. and its subsidiaries ("Microchip")
    44                           ; All rights reserved.
    45                           ; 
    46                           ; This software is developed by Microchip Technology Inc. and its subsidiaries ("Microch
      +                          ip").
    47                           ; 
    48                           ; Redistribution and use in source and binary forms, with or without modification, are
    49                           ; permitted provided that the following conditions are met:
    50                           ; 
    51                           ;     1. Redistributions of source code must retain the above copyright notice, this lis
      +                          t of
    52                           ;        conditions and the following disclaimer.
    53                           ; 
    54                           ;     2. Redistributions in binary form must reproduce the above copyright notice, this 
      +                          list
    55                           ;        of conditions and the following disclaimer in the documentation and/or other
    56                           ;        materials provided with the distribution.
    57                           ; 
    58                           ;     3. Microchip's name may not be used to endorse or promote products derived from th
      +                          is
    59                           ;        software without specific prior written permission.
    60                           ; 
    61                           ; THIS SOFTWARE IS PROVIDED BY MICROCHIP "AS IS" AND ANY EXPRESS OR IMPLIED WARRANTIES,
    62                           ; INCLUDING, BUT NOT LIMITED TO, THE IMPLIED WARRANTIES OF MERCHANTABILITY AND FITNESS F
      +                          OR
    63                           ; PURPOSE ARE DISCLAIMED.  IN NO EVENT SHALL MICROCHIP BE LIABLE FOR ANY DIRECT, INDIREC
      +                          T,
    64                           ; INCIDENTAL, SPECIAL, EXEMPLARY, OR CONSEQUENTIAL DAMAGES (INCLUDING BUT NOT LIMITED TO
    65                           ; PROCUREMENT OF SUBSTITUTE GOODS OR SERVICES; LOSS OF USE, DATA OR PROFITS; OR BUSINESS
    66                           ; INTERRUPTION) HOWSOEVER CAUSED AND ON ANY THEORY OF LIABILITY, WHETHER IN CONTRACT, ST
      +                          RICT
    67                           ; LIABILITY, OR TORT (INCLUDING NEGLIGENCE OR OTHERWISE) ARISING IN ANY WAY OUT OF THE U
      +                          SE OF
    68                           ; THIS SOFTWARE, EVEN IF ADVISED OF THE POSSIBILITY OF SUCH DAMAGE.
    69                           ; 
    70                           ; 
    71                           ; Code-generator required, PIC16F1827 Definitions
    72                           ; 
    73                           ; SFR Addresses
    74  0000                     	;# 
    75  0001                     	;# 
    76  0002                     	;# 
    77  0003                     	;# 
    78  0004                     	;# 
    79  0005                     	;# 
    80  0006                     	;# 
    81  0007                     	;# 
    82  0008                     	;# 
    83  0009                     	;# 
    84  000A                     	;# 
    85  000B                     	;# 
    86  000C                     	;# 
    87  000D                     	;# 
    88  0011                     	;# 
    89  0012                     	;# 
    90  0013                     	;# 
    91  0014                     	;# 
    92  0015                     	;# 
    93  0016                     	;# 
    94  0016                     	;# 
    95  0017                     	;# 
    96  0018                     	;# 
    97  0019                     	;# 
    98  001A                     	;# 
    99  001B                     	;# 
   100  001C                     	;# 
   101  001E                     	;# 
   102  001F                     	;# 
   103  008C                     	;# 
   104  008D                     	;# 
   105  0091                     	;# 
   106  0092                     	;# 
   107  0093                     	;# 
   108  0094                     	;# 
   109  0095                     	;# 
   110  0096                     	;# 
   111  0097                     	;# 
   112  0098                     	;# 
   113  0099                     	;# 
   114  009A                     	;# 
   115  009B                     	;# 
   116  009B                     	;# 
   117  009C                     	;# 
   118  009D                     	;# 
   119  009E                     	;# 
   120  010C                     	;# 
   121  010D                     	;# 
   122  0111                     	;# 
   123  0112                     	;# 
   124  0113                     	;# 
   125  0114                     	;# 
   126  0115                     	;# 
   127  0116                     	;# 
   128  0117                     	;# 
   129  0118                     	;# 
   130  0119                     	;# 
   131  011A                     	;# 
   132  011B                     	;# 
   133  011D                     	;# 
   134  011E                     	;# 
   135  018C                     	;# 
   136  018D                     	;# 
   137  0191                     	;# 
   138  0191                     	;# 
   139  0192                     	;# 
   140  0193                     	;# 
   141  0193                     	;# 
   142  0193                     	;# 
   143  0194                     	;# 
   144  0195                     	;# 
   145  0196                     	;# 
   146  0199                     	;# 
   147  019A                     	;# 
   148  019B                     	;# 
   149  019B                     	;# 
   150  019B                     	;# 
   151  019B                     	;# 
   152  019C                     	;# 
   153  019C                     	;# 
   154  019D                     	;# 
   155  019E                     	;# 
   156  019F                     	;# 
   157  020C                     	;# 
   158  020D                     	;# 
   159  0211                     	;# 
   160  0211                     	;# 
   161  0212                     	;# 
   162  0212                     	;# 
   163  0213                     	;# 
   164  0213                     	;# 
   165  0214                     	;# 
   166  0214                     	;# 
   167  0215                     	;# 
   168  0215                     	;# 
   169  0215                     	;# 
   170  0216                     	;# 
   171  0216                     	;# 
   172  0217                     	;# 
   173  0217                     	;# 
   174  0219                     	;# 
   175  021A                     	;# 
   176  021B                     	;# 
   177  021C                     	;# 
   178  021D                     	;# 
   179  021E                     	;# 
   180  021F                     	;# 
   181  0291                     	;# 
   182  0291                     	;# 
   183  0292                     	;# 
   184  0293                     	;# 
   185  0294                     	;# 
   186  0295                     	;# 
   187  0295                     	;# 
   188  0296                     	;# 
   189  0298                     	;# 
   190  0298                     	;# 
   191  0299                     	;# 
   192  029A                     	;# 
   193  029B                     	;# 
   194  029C                     	;# 
   195  029C                     	;# 
   196  029D                     	;# 
   197  029E                     	;# 
   198  029E                     	;# 
   199  0311                     	;# 
   200  0311                     	;# 
   201  0312                     	;# 
   202  0313                     	;# 
   203  0318                     	;# 
   204  0318                     	;# 
   205  0319                     	;# 
   206  031A                     	;# 
   207  0394                     	;# 
   208  0395                     	;# 
   209  0396                     	;# 
   210  039A                     	;# 
   211  039C                     	;# 
   212  039D                     	;# 
   213  039E                     	;# 
   214  039F                     	;# 
   215  0415                     	;# 
   216  0416                     	;# 
   217  0417                     	;# 
   218  041C                     	;# 
   219  041D                     	;# 
   220  041E                     	;# 
   221  0FE4                     	;# 
   222  0FE5                     	;# 
   223  0FE6                     	;# 
   224  0FE7                     	;# 
   225  0FE8                     	;# 
   226  0FE9                     	;# 
   227  0FEA                     	;# 
   228  0FEB                     	;# 
   229  0FED                     	;# 
   230  0FEE                     	;# 
   231  0FEF                     	;# 
   232  0000                     	;# 
   233  0001                     	;# 
   234  0002                     	;# 
   235  0003                     	;# 
   236  0004                     	;# 
   237  0005                     	;# 
   238  0006                     	;# 
   239  0007                     	;# 
   240  0008                     	;# 
   241  0009                     	;# 
   242  000A                     	;# 
   243  000B                     	;# 
   244  000C                     	;# 
   245  000D                     	;# 
   246  0011                     	;# 
   247  0012                     	;# 
   248  0013                     	;# 
   249  0014                     	;# 
   250  0015                     	;# 
   251  0016                     	;# 
   252  0016                     	;# 
   253  0017                     	;# 
   254  0018                     	;# 
   255  0019                     	;# 
   256  001A                     	;# 
   257  001B                     	;# 
   258  001C                     	;# 
   259  001E                     	;# 
   260  001F                     	;# 
   261  008C                     	;# 
   262  008D                     	;# 
   263  0091                     	;# 
   264  0092                     	;# 
   265  0093                     	;# 
   266  0094                     	;# 
   267  0095                     	;# 
   268  0096                     	;# 
   269  0097                     	;# 
   270  0098                     	;# 
   271  0099                     	;# 
   272  009A                     	;# 
   273  009B                     	;# 
   274  009B                     	;# 
   275  009C                     	;# 
   276  009D                     	;# 
   277  009E                     	;# 
   278  010C                     	;# 
   279  010D                     	;# 
   280  0111                     	;# 
   281  0112                     	;# 
   282  0113                     	;# 
   283  0114                     	;# 
   284  0115                     	;# 
   285  0116                     	;# 
   286  0117                     	;# 
   287  0118                     	;# 
   288  0119                     	;# 
   289  011A                     	;# 
   290  011B                     	;# 
   291  011D                     	;# 
   292  011E                     	;# 
   293  018C                     	;# 
   294  018D                     	;# 
   295  0191                     	;# 
   296  0191                     	;# 
   297  0192                     	;# 
   298  0193                     	;# 
   299  0193                     	;# 
   300  0193                     	;# 
   301  0194                     	;# 
   302  0195                     	;# 
   303  0196                     	;# 
   304  0199                     	;# 
   305  019A                     	;# 
   306  019B                     	;# 
   307  019B                     	;# 
   308  019B                     	;# 
   309  019B                     	;# 
   310  019C                     	;# 
   311  019C                     	;# 
   312  019D                     	;# 
   313  019E                     	;# 
   314  019F                     	;# 
   315  020C                     	;# 
   316  020D                     	;# 
   317  0211                     	;# 
   318  0211                     	;# 
   319  0212                     	;# 
   320  0212                     	;# 
   321  0213                     	;# 
   322  0213                     	;# 
   323  0214                     	;# 
   324  0214                     	;# 
   325  0215                     	;# 
   326  0215                     	;# 
   327  0215                     	;# 
   328  0216                     	;# 
   329  0216                     	;# 
   330  0217                     	;# 
   331  0217                     	;# 
   332  0219                     	;# 
   333  021A                     	;# 
   334  021B                     	;# 
   335  021C                     	;# 
   336  021D                     	;# 
   337  021E                     	;# 
   338  021F                     	;# 
   339  0291                     	;# 
   340  0291                     	;# 
   341  0292                     	;# 
   342  0293                     	;# 
   343  0294                     	;# 
   344  0295                     	;# 
   345  0295                     	;# 
   346  0296                     	;# 
   347  0298                     	;# 
   348  0298                     	;# 
   349  0299                     	;# 
   350  029A                     	;# 
   351  029B                     	;# 
   352  029C                     	;# 
   353  029C                     	;# 
   354  029D                     	;# 
   355  029E                     	;# 
   356  029E                     	;# 
   357  0311                     	;# 
   358  0311                     	;# 
   359  0312                     	;# 
   360  0313                     	;# 
   361  0318                     	;# 
   362  0318                     	;# 
   363  0319                     	;# 
   364  031A                     	;# 
   365  0394                     	;# 
   366  0395                     	;# 
   367  0396                     	;# 
   368  039A                     	;# 
   369  039C                     	;# 
   370  039D                     	;# 
   371  039E                     	;# 
   372  039F                     	;# 
   373  0415                     	;# 
   374  0416                     	;# 
   375  0417                     	;# 
   376  041C                     	;# 
   377  041D                     	;# 
   378  041E                     	;# 
   379  0FE4                     	;# 
   380  0FE5                     	;# 
   381  0FE6                     	;# 
   382  0FE7                     	;# 
   383  0FE8                     	;# 
   384  0FE9                     	;# 
   385  0FEA                     	;# 
   386  0FEB                     	;# 
   387  0FED                     	;# 
   388  0FEE                     	;# 
   389  0FEF                     	;# 
   390  0000                     	;# 
   391  0001                     	;# 
   392  0002                     	;# 
   393  0003                     	;# 
   394  0004                     	;# 
   395  0005                     	;# 
   396  0006                     	;# 
   397  0007                     	;# 
   398  0008                     	;# 
   399  0009                     	;# 
   400  000A                     	;# 
   401  000B                     	;# 
   402  000C                     	;# 
   403  000D                     	;# 
   404  0011                     	;# 
   405  0012                     	;# 
   406  0013                     	;# 
   407  0014                     	;# 
   408  0015                     	;# 
   409  0016                     	;# 
   410  0016                     	;# 
   411  0017                     	;# 
   412  0018                     	;# 
   413  0019                     	;# 
   414  001A                     	;# 
   415  001B                     	;# 
   416  001C                     	;# 
   417  001E                     	;# 
   418  001F                     	;# 
   419  008C                     	;# 
   420  008D                     	;# 
   421  0091                     	;# 
   422  0092                     	;# 
   423  0093                     	;# 
   424  0094                     	;# 
   425  0095                     	;# 
   426  0096                     	;# 
   427  0097                     	;# 
   428  0098                     	;# 
   429  0099                     	;# 
   430  009A                     	;# 
   431  009B                     	;# 
   432  009B                     	;# 
   433  009C                     	;# 
   434  009D                     	;# 
   435  009E                     	;# 
   436  010C                     	;# 
   437  010D                     	;# 
   438  0111                     	;# 
   439  0112                     	;# 
   440  0113                     	;# 
   441  0114                     	;# 
   442  0115                     	;# 
   443  0116                     	;# 
   444  0117                     	;# 
   445  0118                     	;# 
   446  0119                     	;# 
   447  011A                     	;# 
   448  011B                     	;# 
   449  011D                     	;# 
   450  011E                     	;# 
   451  018C                     	;# 
   452  018D                     	;# 
   453  0191                     	;# 
   454  0191                     	;# 
   455  0192                     	;# 
   456  0193                     	;# 
   457  0193                     	;# 
   458  0193                     	;# 
   459  0194                     	;# 
   460  0195                     	;# 
   461  0196                     	;# 
   462  0199                     	;# 
   463  019A                     	;# 
   464  019B                     	;# 
   465  019B                     	;# 
   466  019B                     	;# 
   467  019B                     	;# 
   468  019C                     	;# 
   469  019C                     	;# 
   470  019D                     	;# 
   471  019E                     	;# 
   472  019F                     	;# 
   473  020C                     	;# 
   474  020D                     	;# 
   475  0211                     	;# 
   476  0211                     	;# 
   477  0212                     	;# 
   478  0212                     	;# 
   479  0213                     	;# 
   480  0213                     	;# 
   481  0214                     	;# 
   482  0214                     	;# 
   483  0215                     	;# 
   484  0215                     	;# 
   485  0215                     	;# 
   486  0216                     	;# 
   487  0216                     	;# 
   488  0217                     	;# 
   489  0217                     	;# 
   490  0219                     	;# 
   491  021A                     	;# 
   492  021B                     	;# 
   493  021C                     	;# 
   494  021D                     	;# 
   495  021E                     	;# 
   496  021F                     	;# 
   497  0291                     	;# 
   498  0291                     	;# 
   499  0292                     	;# 
   500  0293                     	;# 
   501  0294                     	;# 
   502  0295                     	;# 
   503  0295                     	;# 
   504  0296                     	;# 
   505  0298                     	;# 
   506  0298                     	;# 
   507  0299                     	;# 
   508  029A                     	;# 
   509  029B                     	;# 
   510  029C                     	;# 
   511  029C                     	;# 
   512  029D                     	;# 
   513  029E                     	;# 
   514  029E                     	;# 
   515  0311                     	;# 
   516  0311                     	;# 
   517  0312                     	;# 
   518  0313                     	;# 
   519  0318                     	;# 
   520  0318                     	;# 
   521  0319                     	;# 
   522  031A                     	;# 
   523  0394                     	;# 
   524  0395                     	;# 
   525  0396                     	;# 
   526  039A                     	;# 
   527  039C                     	;# 
   528  039D                     	;# 
   529  039E                     	;# 
   530  039F                     	;# 
   531  0415                     	;# 
   532  0416                     	;# 
   533  0417                     	;# 
   534  041C                     	;# 
   535  041D                     	;# 
   536  041E                     	;# 
   537  0FE4                     	;# 
   538  0FE5                     	;# 
   539  0FE6                     	;# 
   540  0FE7                     	;# 
   541  0FE8                     	;# 
   542  0FE9                     	;# 
   543  0FEA                     	;# 
   544  0FEB                     	;# 
   545  0FED                     	;# 
   546  0FEE                     	;# 
   547  0FEF                     	;# 
   548  0000                     	;# 
   549  0001                     	;# 
   550  0002                     	;# 
   551  0003                     	;# 
   552  0004                     	;# 
   553  0005                     	;# 
   554  0006                     	;# 
   555  0007                     	;# 
   556  0008                     	;# 
   557  0009                     	;# 
   558  000A                     	;# 
   559  000B                     	;# 
   560  000C                     	;# 
   561  000D                     	;# 
   562  0011                     	;# 
   563  0012                     	;# 
   564  0013                     	;# 
   565  0014                     	;# 
   566  0015                     	;# 
   567  0016                     	;# 
   568  0016                     	;# 
   569  0017                     	;# 
   570  0018                     	;# 
   571  0019                     	;# 
   572  001A                     	;# 
   573  001B                     	;# 
   574  001C                     	;# 
   575  001E                     	;# 
   576  001F                     	;# 
   577  008C                     	;# 
   578  008D                     	;# 
   579  0091                     	;# 
   580  0092                     	;# 
   581  0093                     	;# 
   582  0094                     	;# 
   583  0095                     	;# 
   584  0096                     	;# 
   585  0097                     	;# 
   586  0098                     	;# 
   587  0099                     	;# 
   588  009A                     	;# 
   589  009B                     	;# 
   590  009B                     	;# 
   591  009C                     	;# 
   592  009D                     	;# 
   593  009E                     	;# 
   594  010C                     	;# 
   595  010D                     	;# 
   596  0111                     	;# 
   597  0112                     	;# 
   598  0113                     	;# 
   599  0114                     	;# 
   600  0115                     	;# 
   601  0116                     	;# 
   602  0117                     	;# 
   603  0118                     	;# 
   604  0119                     	;# 
   605  011A                     	;# 
   606  011B                     	;# 
   607  011D                     	;# 
   608  011E                     	;# 
   609  018C                     	;# 
   610  018D                     	;# 
   611  0191                     	;# 
   612  0191                     	;# 
   613  0192                     	;# 
   614  0193                     	;# 
   615  0193                     	;# 
   616  0193                     	;# 
   617  0194                     	;# 
   618  0195                     	;# 
   619  0196                     	;# 
   620  0199                     	;# 
   621  019A                     	;# 
   622  019B                     	;# 
   623  019B                     	;# 
   624  019B                     	;# 
   625  019B                     	;# 
   626  019C                     	;# 
   627  019C                     	;# 
   628  019D                     	;# 
   629  019E                     	;# 
   630  019F                     	;# 
   631  020C                     	;# 
   632  020D                     	;# 
   633  0211                     	;# 
   634  0211                     	;# 
   635  0212                     	;# 
   636  0212                     	;# 
   637  0213                     	;# 
   638  0213                     	;# 
   639  0214                     	;# 
   640  0214                     	;# 
   641  0215                     	;# 
   642  0215                     	;# 
   643  0215                     	;# 
   644  0216                     	;# 
   645  0216                     	;# 
   646  0217                     	;# 
   647  0217                     	;# 
   648  0219                     	;# 
   649  021A                     	;# 
   650  021B                     	;# 
   651  021C                     	;# 
   652  021D                     	;# 
   653  021E                     	;# 
   654  021F                     	;# 
   655  0291                     	;# 
   656  0291                     	;# 
   657  0292                     	;# 
   658  0293                     	;# 
   659  0294                     	;# 
   660  0295                     	;# 
   661  0295                     	;# 
   662  0296                     	;# 
   663  0298                     	;# 
   664  0298                     	;# 
   665  0299                     	;# 
   666  029A                     	;# 
   667  029B                     	;# 
   668  029C                     	;# 
   669  029C                     	;# 
   670  029D                     	;# 
   671  029E                     	;# 
   672  029E                     	;# 
   673  0311                     	;# 
   674  0311                     	;# 
   675  0312                     	;# 
   676  0313                     	;# 
   677  0318                     	;# 
   678  0318                     	;# 
   679  0319                     	;# 
   680  031A                     	;# 
   681  0394                     	;# 
   682  0395                     	;# 
   683  0396                     	;# 
   684  039A                     	;# 
   685  039C                     	;# 
   686  039D                     	;# 
   687  039E                     	;# 
   688  039F                     	;# 
   689  0415                     	;# 
   690  0416                     	;# 
   691  0417                     	;# 
   692  041C                     	;# 
   693  041D                     	;# 
   694  041E                     	;# 
   695  0FE4                     	;# 
   696  0FE5                     	;# 
   697  0FE6                     	;# 
   698  0FE7                     	;# 
   699  0FE8                     	;# 
   700  0FE9                     	;# 
   701  0FEA                     	;# 
   702  0FEB                     	;# 
   703  0FED                     	;# 
   704  0FEE                     	;# 
   705  0FEF                     	;# 
   706  0000                     	;# 
   707  0001                     	;# 
   708  0002                     	;# 
   709  0003                     	;# 
   710  0004                     	;# 
   711  0005                     	;# 
   712  0006                     	;# 
   713  0007                     	;# 
   714  0008                     	;# 
   715  0009                     	;# 
   716  000A                     	;# 
   717  000B                     	;# 
   718  000C                     	;# 
   719  000D                     	;# 
   720  0011                     	;# 
   721  0012                     	;# 
   722  0013                     	;# 
   723  0014                     	;# 
   724  0015                     	;# 
   725  0016                     	;# 
   726  0016                     	;# 
   727  0017                     	;# 
   728  0018                     	;# 
   729  0019                     	;# 
   730  001A                     	;# 
   731  001B                     	;# 
   732  001C                     	;# 
   733  001E                     	;# 
   734  001F                     	;# 
   735  008C                     	;# 
   736  008D                     	;# 
   737  0091                     	;# 
   738  0092                     	;# 
   739  0093                     	;# 
   740  0094                     	;# 
   741  0095                     	;# 
   742  0096                     	;# 
   743  0097                     	;# 
   744  0098                     	;# 
   745  0099                     	;# 
   746  009A                     	;# 
   747  009B                     	;# 
   748  009B                     	;# 
   749  009C                     	;# 
   750  009D                     	;# 
   751  009E                     	;# 
   752  010C                     	;# 
   753  010D                     	;# 
   754  0111                     	;# 
   755  0112                     	;# 
   756  0113                     	;# 
   757  0114                     	;# 
   758  0115                     	;# 
   759  0116                     	;# 
   760  0117                     	;# 
   761  0118                     	;# 
   762  0119                     	;# 
   763  011A                     	;# 
   764  011B                     	;# 
   765  011D                     	;# 
   766  011E                     	;# 
   767  018C                     	;# 
   768  018D                     	;# 
   769  0191                     	;# 
   770  0191                     	;# 
   771  0192                     	;# 
   772  0193                     	;# 
   773  0193                     	;# 
   774  0193                     	;# 
   775  0194                     	;# 
   776  0195                     	;# 
   777  0196                     	;# 
   778  0199                     	;# 
   779  019A                     	;# 
   780  019B                     	;# 
   781  019B                     	;# 
   782  019B                     	;# 
   783  019B                     	;# 
   784  019C                     	;# 
   785  019C                     	;# 
   786  019D                     	;# 
   787  019E                     	;# 
   788  019F                     	;# 
   789  020C                     	;# 
   790  020D                     	;# 
   791  0211                     	;# 
   792  0211                     	;# 
   793  0212                     	;# 
   794  0212                     	;# 
   795  0213                     	;# 
   796  0213                     	;# 
   797  0214                     	;# 
   798  0214                     	;# 
   799  0215                     	;# 
   800  0215                     	;# 
   801  0215                     	;# 
   802  0216                     	;# 
   803  0216                     	;# 
   804  0217                     	;# 
   805  0217                     	;# 
   806  0219                     	;# 
   807  021A                     	;# 
   808  021B                     	;# 
   809  021C                     	;# 
   810  021D                     	;# 
   811  021E                     	;# 
   812  021F                     	;# 
   813  0291                     	;# 
   814  0291                     	;# 
   815  0292                     	;# 
   816  0293                     	;# 
   817  0294                     	;# 
   818  0295                     	;# 
   819  0295                     	;# 
   820  0296                     	;# 
   821  0298                     	;# 
   822  0298                     	;# 
   823  0299                     	;# 
   824  029A                     	;# 
   825  029B                     	;# 
   826  029C                     	;# 
   827  029C                     	;# 
   828  029D                     	;# 
   829  029E                     	;# 
   830  029E                     	;# 
   831  0311                     	;# 
   832  0311                     	;# 
   833  0312                     	;# 
   834  0313                     	;# 
   835  0318                     	;# 
   836  0318                     	;# 
   837  0319                     	;# 
   838  031A                     	;# 
   839  0394                     	;# 
   840  0395                     	;# 
   841  0396                     	;# 
   842  039A                     	;# 
   843  039C                     	;# 
   844  039D                     	;# 
   845  039E                     	;# 
   846  039F                     	;# 
   847  0415                     	;# 
   848  0416                     	;# 
   849  0417                     	;# 
   850  041C                     	;# 
   851  041D                     	;# 
   852  041E                     	;# 
   853  0FE4                     	;# 
   854  0FE5                     	;# 
   855  0FE6                     	;# 
   856  0FE7                     	;# 
   857  0FE8                     	;# 
   858  0FE9                     	;# 
   859  0FEA                     	;# 
   860  0FEB                     	;# 
   861  0FED                     	;# 
   862  0FEE                     	;# 
   863  0FEF                     	;# 
   864  0000                     	;# 
   865  0001                     	;# 
   866  0002                     	;# 
   867  0003                     	;# 
   868  0004                     	;# 
   869  0005                     	;# 
   870  0006                     	;# 
   871  0007                     	;# 
   872  0008                     	;# 
   873  0009                     	;# 
   874  000A                     	;# 
   875  000B                     	;# 
   876  000C                     	;# 
   877  000D                     	;# 
   878  0011                     	;# 
   879  0012                     	;# 
   880  0013                     	;# 
   881  0014                     	;# 
   882  0015                     	;# 
   883  0016                     	;# 
   884  0016                     	;# 
   885  0017                     	;# 
   886  0018                     	;# 
   887  0019                     	;# 
   888  001A                     	;# 
   889  001B                     	;# 
   890  001C                     	;# 
   891  001E                     	;# 
   892  001F                     	;# 
   893  008C                     	;# 
   894  008D                     	;# 
   895  0091                     	;# 
   896  0092                     	;# 
   897  0093                     	;# 
   898  0094                     	;# 
   899  0095                     	;# 
   900  0096                     	;# 
   901  0097                     	;# 
   902  0098                     	;# 
   903  0099                     	;# 
   904  009A                     	;# 
   905  009B                     	;# 
   906  009B                     	;# 
   907  009C                     	;# 
   908  009D                     	;# 
   909  009E                     	;# 
   910  010C                     	;# 
   911  010D                     	;# 
   912  0111                     	;# 
   913  0112                     	;# 
   914  0113                     	;# 
   915  0114                     	;# 
   916  0115                     	;# 
   917  0116                     	;# 
   918  0117                     	;# 
   919  0118                     	;# 
   920  0119                     	;# 
   921  011A                     	;# 
   922  011B                     	;# 
   923  011D                     	;# 
   924  011E                     	;# 
   925  018C                     	;# 
   926  018D                     	;# 
   927  0191                     	;# 
   928  0191                     	;# 
   929  0192                     	;# 
   930  0193                     	;# 
   931  0193                     	;# 
   932  0193                     	;# 
   933  0194                     	;# 
   934  0195                     	;# 
   935  0196                     	;# 
   936  0199                     	;# 
   937  019A                     	;# 
   938  019B                     	;# 
   939  019B                     	;# 
   940  019B                     	;# 
   941  019B                     	;# 
   942  019C                     	;# 
   943  019C                     	;# 
   944  019D                     	;# 
   945  019E                     	;# 
   946  019F                     	;# 
   947  020C                     	;# 
   948  020D                     	;# 
   949  0211                     	;# 
   950  0211                     	;# 
   951  0212                     	;# 
   952  0212                     	;# 
   953  0213                     	;# 
   954  0213                     	;# 
   955  0214                     	;# 
   956  0214                     	;# 
   957  0215                     	;# 
   958  0215                     	;# 
   959  0215                     	;# 
   960  0216                     	;# 
   961  0216                     	;# 
   962  0217                     	;# 
   963  0217                     	;# 
   964  0219                     	;# 
   965  021A                     	;# 
   966  021B                     	;# 
   967  021C                     	;# 
   968  021D                     	;# 
   969  021E                     	;# 
   970  021F                     	;# 
   971  0291                     	;# 
   972  0291                     	;# 
   973  0292                     	;# 
   974  0293                     	;# 
   975  0294                     	;# 
   976  0295                     	;# 
   977  0295                     	;# 
   978  0296                     	;# 
   979  0298                     	;# 
   980  0298                     	;# 
   981  0299                     	;# 
   982  029A                     	;# 
   983  029B                     	;# 
   984  029C                     	;# 
   985  029C                     	;# 
   986  029D                     	;# 
   987  029E                     	;# 
   988  029E                     	;# 
   989  0311                     	;# 
   990  0311                     	;# 
   991  0312                     	;# 
   992  0313                     	;# 
   993  0318                     	;# 
   994  0318                     	;# 
   995  0319                     	;# 
   996  031A                     	;# 
   997  0394                     	;# 
   998  0395                     	;# 
   999  0396                     	;# 
  1000  039A                     	;# 
  1001  039C                     	;# 
  1002  039D                     	;# 
  1003  039E                     	;# 
  1004  039F                     	;# 
  1005  0415                     	;# 
  1006  0416                     	;# 
  1007  0417                     	;# 
  1008  041C                     	;# 
  1009  041D                     	;# 
  1010  041E                     	;# 
  1011  0FE4                     	;# 
  1012  0FE5                     	;# 
  1013  0FE6                     	;# 
  1014  0FE7                     	;# 
  1015  0FE8                     	;# 
  1016  0FE9                     	;# 
  1017  0FEA                     	;# 
  1018  0FEB                     	;# 
  1019  0FED                     	;# 
  1020  0FEE                     	;# 
  1021  0FEF                     	;# 
  1022  0000                     	;# 
  1023  0001                     	;# 
  1024  0002                     	;# 
  1025  0003                     	;# 
  1026  0004                     	;# 
  1027  0005                     	;# 
  1028  0006                     	;# 
  1029  0007                     	;# 
  1030  0008                     	;# 
  1031  0009                     	;# 
  1032  000A                     	;# 
  1033  000B                     	;# 
  1034  000C                     	;# 
  1035  000D                     	;# 
  1036  0011                     	;# 
  1037  0012                     	;# 
  1038  0013                     	;# 
  1039  0014                     	;# 
  1040  0015                     	;# 
  1041  0016                     	;# 
  1042  0016                     	;# 
  1043  0017                     	;# 
  1044  0018                     	;# 
  1045  0019                     	;# 
  1046  001A                     	;# 
  1047  001B                     	;# 
  1048  001C                     	;# 
  1049  001E                     	;# 
  1050  001F                     	;# 
  1051  008C                     	;# 
  1052  008D                     	;# 
  1053  0091                     	;# 
  1054  0092                     	;# 
  1055  0093                     	;# 
  1056  0094                     	;# 
  1057  0095                     	;# 
  1058  0096                     	;# 
  1059  0097                     	;# 
  1060  0098                     	;# 
  1061  0099                     	;# 
  1062  009A                     	;# 
  1063  009B                     	;# 
  1064  009B                     	;# 
  1065  009C                     	;# 
  1066  009D                     	;# 
  1067  009E                     	;# 
  1068  010C                     	;# 
  1069  010D                     	;# 
  1070  0111                     	;# 
  1071  0112                     	;# 
  1072  0113                     	;# 
  1073  0114                     	;# 
  1074  0115                     	;# 
  1075  0116                     	;# 
  1076  0117                     	;# 
  1077  0118                     	;# 
  1078  0119                     	;# 
  1079  011A                     	;# 
  1080  011B                     	;# 
  1081  011D                     	;# 
  1082  011E                     	;# 
  1083  018C                     	;# 
  1084  018D                     	;# 
  1085  0191                     	;# 
  1086  0191                     	;# 
  1087  0192                     	;# 
  1088  0193                     	;# 
  1089  0193                     	;# 
  1090  0193                     	;# 
  1091  0194                     	;# 
  1092  0195                     	;# 
  1093  0196                     	;# 
  1094  0199                     	;# 
  1095  019A                     	;# 
  1096  019B                     	;# 
  1097  019B                     	;# 
  1098  019B                     	;# 
  1099  019B                     	;# 
  1100  019C                     	;# 
  1101  019C                     	;# 
  1102  019D                     	;# 
  1103  019E                     	;# 
  1104  019F                     	;# 
  1105  020C                     	;# 
  1106  020D                     	;# 
  1107  0211                     	;# 
  1108  0211                     	;# 
  1109  0212                     	;# 
  1110  0212                     	;# 
  1111  0213                     	;# 
  1112  0213                     	;# 
  1113  0214                     	;# 
  1114  0214                     	;# 
  1115  0215                     	;# 
  1116  0215                     	;# 
  1117  0215                     	;# 
  1118  0216                     	;# 
  1119  0216                     	;# 
  1120  0217                     	;# 
  1121  0217                     	;# 
  1122  0219                     	;# 
  1123  021A                     	;# 
  1124  021B                     	;# 
  1125  021C                     	;# 
  1126  021D                     	;# 
  1127  021E                     	;# 
  1128  021F                     	;# 
  1129  0291                     	;# 
  1130  0291                     	;# 
  1131  0292                     	;# 
  1132  0293                     	;# 
  1133  0294                     	;# 
  1134  0295                     	;# 
  1135  0295                     	;# 
  1136  0296                     	;# 
  1137  0298                     	;# 
  1138  0298                     	;# 
  1139  0299                     	;# 
  1140  029A                     	;# 
  1141  029B                     	;# 
  1142  029C                     	;# 
  1143  029C                     	;# 
  1144  029D                     	;# 
  1145  029E                     	;# 
  1146  029E                     	;# 
  1147  0311                     	;# 
  1148  0311                     	;# 
  1149  0312                     	;# 
  1150  0313                     	;# 
  1151  0318                     	;# 
  1152  0318                     	;# 
  1153  0319                     	;# 
  1154  031A                     	;# 
  1155  0394                     	;# 
  1156  0395                     	;# 
  1157  0396                     	;# 
  1158  039A                     	;# 
  1159  039C                     	;# 
  1160  039D                     	;# 
  1161  039E                     	;# 
  1162  039F                     	;# 
  1163  0415                     	;# 
  1164  0416                     	;# 
  1165  0417                     	;# 
  1166  041C                     	;# 
  1167  041D                     	;# 
  1168  041E                     	;# 
  1169  0FE4                     	;# 
  1170  0FE5                     	;# 
  1171  0FE6                     	;# 
  1172  0FE7                     	;# 
  1173  0FE8                     	;# 
  1174  0FE9                     	;# 
  1175  0FEA                     	;# 
  1176  0FEB                     	;# 
  1177  0FED                     	;# 
  1178  0FEE                     	;# 
  1179  0FEF                     	;# 
  1180  0000                     	;# 
  1181  0001                     	;# 
  1182  0002                     	;# 
  1183  0003                     	;# 
  1184  0004                     	;# 
  1185  0005                     	;# 
  1186  0006                     	;# 
  1187  0007                     	;# 
  1188  0008                     	;# 
  1189  0009                     	;# 
  1190  000A                     	;# 
  1191  000B                     	;# 
  1192  000C                     	;# 
  1193  000D                     	;# 
  1194  0011                     	;# 
  1195  0012                     	;# 
  1196  0013                     	;# 
  1197  0014                     	;# 
  1198  0015                     	;# 
  1199  0016                     	;# 
  1200  0016                     	;# 
  1201  0017                     	;# 
  1202  0018                     	;# 
  1203  0019                     	;# 
  1204  001A                     	;# 
  1205  001B                     	;# 
  1206  001C                     	;# 
  1207  001E                     	;# 
  1208  001F                     	;# 
  1209  008C                     	;# 
  1210  008D                     	;# 
  1211  0091                     	;# 
  1212  0092                     	;# 
  1213  0093                     	;# 
  1214  0094                     	;# 
  1215  0095                     	;# 
  1216  0096                     	;# 
  1217  0097                     	;# 
  1218  0098                     	;# 
  1219  0099                     	;# 
  1220  009A                     	;# 
  1221  009B                     	;# 
  1222  009B                     	;# 
  1223  009C                     	;# 
  1224  009D                     	;# 
  1225  009E                     	;# 
  1226  010C                     	;# 
  1227  010D                     	;# 
  1228  0111                     	;# 
  1229  0112                     	;# 
  1230  0113                     	;# 
  1231  0114                     	;# 
  1232  0115                     	;# 
  1233  0116                     	;# 
  1234  0117                     	;# 
  1235  0118                     	;# 
  1236  0119                     	;# 
  1237  011A                     	;# 
  1238  011B                     	;# 
  1239  011D                     	;# 
  1240  011E                     	;# 
  1241  018C                     	;# 
  1242  018D                     	;# 
  1243  0191                     	;# 
  1244  0191                     	;# 
  1245  0192                     	;# 
  1246  0193                     	;# 
  1247  0193                     	;# 
  1248  0193                     	;# 
  1249  0194                     	;# 
  1250  0195                     	;# 
  1251  0196                     	;# 
  1252  0199                     	;# 
  1253  019A                     	;# 
  1254  019B                     	;# 
  1255  019B                     	;# 
  1256  019B                     	;# 
  1257  019B                     	;# 
  1258  019C                     	;# 
  1259  019C                     	;# 
  1260  019D                     	;# 
  1261  019E                     	;# 
  1262  019F                     	;# 
  1263  020C                     	;# 
  1264  020D                     	;# 
  1265  0211                     	;# 
  1266  0211                     	;# 
  1267  0212                     	;# 
  1268  0212                     	;# 
  1269  0213                     	;# 
  1270  0213                     	;# 
  1271  0214                     	;# 
  1272  0214                     	;# 
  1273  0215                     	;# 
  1274  0215                     	;# 
  1275  0215                     	;# 
  1276  0216                     	;# 
  1277  0216                     	;# 
  1278  0217                     	;# 
  1279  0217                     	;# 
  1280  0219                     	;# 
  1281  021A                     	;# 
  1282  021B                     	;# 
  1283  021C                     	;# 
  1284  021D                     	;# 
  1285  021E                     	;# 
  1286  021F                     	;# 
  1287  0291                     	;# 
  1288  0291                     	;# 
  1289  0292                     	;# 
  1290  0293                     	;# 
  1291  0294                     	;# 
  1292  0295                     	;# 
  1293  0295                     	;# 
  1294  0296                     	;# 
  1295  0298                     	;# 
  1296  0298                     	;# 
  1297  0299                     	;# 
  1298  029A                     	;# 
  1299  029B                     	;# 
  1300  029C                     	;# 
  1301  029C                     	;# 
  1302  029D                     	;# 
  1303  029E                     	;# 
  1304  029E                     	;# 
  1305  0311                     	;# 
  1306  0311                     	;# 
  1307  0312                     	;# 
  1308  0313                     	;# 
  1309  0318                     	;# 
  1310  0318                     	;# 
  1311  0319                     	;# 
  1312  031A                     	;# 
  1313  0394                     	;# 
  1314  0395                     	;# 
  1315  0396                     	;# 
  1316  039A                     	;# 
  1317  039C                     	;# 
  1318  039D                     	;# 
  1319  039E                     	;# 
  1320  039F                     	;# 
  1321  0415                     	;# 
  1322  0416                     	;# 
  1323  0417                     	;# 
  1324  041C                     	;# 
  1325  041D                     	;# 
  1326  041E                     	;# 
  1327  0FE4                     	;# 
  1328  0FE5                     	;# 
  1329  0FE6                     	;# 
  1330  0FE7                     	;# 
  1331  0FE8                     	;# 
  1332  0FE9                     	;# 
  1333  0FEA                     	;# 
  1334  0FEB                     	;# 
  1335  0FED                     	;# 
  1336  0FEE                     	;# 
  1337  0FEF                     	;# 
  1338                           
  1339 ;; Function _EUSART_DefaultFramingErrorHandler is unused but had its address taken
  1340  0000                     
  1341 ;; Function _EUSART_DefaultOverrunErrorHandler is unused but had its address taken
  1342  0000                     
  1343 ;; Function _EUSART_DefaultErrorHandler is unused but had its address taken
  1344  0013                     _PIR3bits	set	19
  1345  0011                     _PIR1bits	set	17
  1346  0095                     _OPTION_REGbits	set	149
  1347  008D                     _TRISB	set	141
  1348  008C                     _TRISA	set	140
  1349  0097                     _WDTCON	set	151
  1350  0098                     _OSCTUNE	set	152
  1351  0099                     _OSCCON	set	153
  1352  009D                     _ADCON0bits	set	157
  1353  009D                     _ADCON0	set	157
  1354  009C                     _ADRESH	set	156
  1355  009B                     _ADRESL	set	155
  1356  009E                     _ADCON1	set	158
  1357  04D6                     _PLLR	set	1238
  1358  010C                     _LATAbits	set	268
  1359  010D                     _LATBbits	set	269
  1360  011E                     _APFCON1	set	286
  1361  011D                     _APFCON0	set	285
  1362  010D                     _LATB	set	269
  1363  010C                     _LATA	set	268
  1364  0116                     _BORCON	set	278
  1365  018C                     _ANSELA	set	396
  1366  018D                     _ANSELB	set	397
  1367  019A                     _TXREG	set	410
  1368  0199                     _RCREG	set	409
  1369  019D                     _RCSTAbits	set	413
  1370  019E                     _TXSTAbits	set	414
  1371  019C                     _SPBRGH	set	412
  1372  019B                     _SPBRGL	set	411
  1373  019E                     _TXSTA	set	414
  1374  019D                     _RCSTA	set	413
  1375  019F                     _BAUDCON	set	415
  1376  020C                     _WPUA	set	524
  1377  020D                     _WPUB	set	525
  1378  041E                     _T6CONbits	set	1054
  1379  041E                     _T6CON	set	1054
  1380  041C                     _TMR6	set	1052
  1381  041D                     _PR6	set	1053
  1382                           
  1383                           	psect	cinit
  1384  07F2                     start_initialization:	
  1385                           ; #config settings
  1386                           
  1387  07F2                     __initialization:
  1388                           
  1389                           ; Clear objects allocated to BANK0
  1390  07F2  0020               	movlb	0	; select bank0
  1391  07F3  01EE               	clrf	__pbssBANK0& (0+127)
  1392                           
  1393                           ; Clear objects allocated to BANK1
  1394  07F4  0021               	movlb	1	; select bank1
  1395  07F5  01A0               	clrf	__pbssBANK1& (0+127)
  1396  07F6  01A1               	clrf	(__pbssBANK1+1)& (0+127)
  1397  07F7  01A2               	clrf	(__pbssBANK1+2)& (0+127)
  1398  07F8  01A3               	clrf	(__pbssBANK1+3)& (0+127)
  1399  07F9  01A4               	clrf	(__pbssBANK1+4)& (0+127)
  1400  07FA  01A5               	clrf	(__pbssBANK1+5)& (0+127)
  1401  07FB  01A6               	clrf	(__pbssBANK1+6)& (0+127)
  1402  07FC  01A7               	clrf	(__pbssBANK1+7)& (0+127)
  1403  07FD                     end_of_initialization:	
  1404                           ;End of C runtime variable initialization code
  1405                           
  1406  07FD                     __end_of__initialization:
  1407  07FD  0020               	movlb	0
  1408  07FE  3184  2C4B         	ljmp	_main	;jump to C main() function
  1409                           
  1410                           	psect	bssBANK0
  1411  006E                     __pbssBANK0:
  1412  006E                     _eusartRxLastError:
  1413  006E                     	ds	1
  1414                           
  1415                           	psect	bssBANK1
  1416  00A0                     __pbssBANK1:
  1417  00A0                     _EUSART_ErrorHandler:
  1418  00A0                     	ds	2
  1419  00A2                     _EUSART_OverrunErrorHandler:
  1420  00A2                     	ds	2
  1421  00A4                     _EUSART_FramingErrorHandler:
  1422  00A4                     	ds	2
  1423  00A6                     _ADC_InterruptHandler:
  1424  00A6                     	ds	2
  1425                           
  1426                           	psect	cstackCOMMON
  1427  0070                     __pcstackCOMMON:
  1428  0070                     ?_EUSART_SetFramingErrorHandler:
  1429  0070                     ?_EUSART_SetOverrunErrorHandler:	
  1430                           ; 1 bytes @ 0x0
  1431                           
  1432  0070                     ?_EUSART_SetErrorHandler:	
  1433                           ; 1 bytes @ 0x0
  1434                           
  1435  0070                     ?_SYSTEM_Initialize:	
  1436                           ; 1 bytes @ 0x0
  1437                           
  1438  0070                     ?_Tm_Inicie_periodico:	
  1439                           ; 1 bytes @ 0x0
  1440                           
  1441  0070                     ?_Ds_Iniciar_displays:	
  1442                           ; 1 bytes @ 0x0
  1443                           
  1444  0070                     ?_TMR6_StartTimer:	
  1445                           ; 1 bytes @ 0x0
  1446                           
  1447  0070                     ??_TMR6_StartTimer:	
  1448                           ; 1 bytes @ 0x0
  1449                           
  1450  0070                     ?_Ds_BCD:	
  1451                           ; 1 bytes @ 0x0
  1452                           
  1453  0070                     ??_Ds_BCD:	
  1454                           ; 1 bytes @ 0x0
  1455                           
  1456  0070                     ?_Ds_Encienda_Disp:	
  1457                           ; 1 bytes @ 0x0
  1458                           
  1459  0070                     ??_Ds_Encienda_Disp:	
  1460                           ; 1 bytes @ 0x0
  1461                           
  1462  0070                     ?_PIN_MANAGER_Initialize:	
  1463                           ; 1 bytes @ 0x0
  1464                           
  1465  0070                     ??_PIN_MANAGER_Initialize:	
  1466                           ; 1 bytes @ 0x0
  1467                           
  1468  0070                     ?_OSCILLATOR_Initialize:	
  1469                           ; 1 bytes @ 0x0
  1470                           
  1471  0070                     ??_OSCILLATOR_Initialize:	
  1472                           ; 1 bytes @ 0x0
  1473                           
  1474  0070                     ?_WDT_Initialize:	
  1475                           ; 1 bytes @ 0x0
  1476                           
  1477  0070                     ??_WDT_Initialize:	
  1478                           ; 1 bytes @ 0x0
  1479                           
  1480  0070                     ?_TMR6_Initialize:	
  1481                           ; 1 bytes @ 0x0
  1482                           
  1483  0070                     ??_TMR6_Initialize:	
  1484                           ; 1 bytes @ 0x0
  1485                           
  1486  0070                     ?_ADC_Initialize:	
  1487                           ; 1 bytes @ 0x0
  1488                           
  1489  0070                     ??_ADC_Initialize:	
  1490                           ; 1 bytes @ 0x0
  1491                           
  1492  0070                     ?_ADC_StartConversion:	
  1493                           ; 1 bytes @ 0x0
  1494                           
  1495  0070                     ??_ADC_StartConversion:	
  1496                           ; 1 bytes @ 0x0
  1497                           
  1498  0070                     ?_ADC_IsConversionDone:	
  1499                           ; 1 bytes @ 0x0
  1500                           
  1501  0070                     ??_ADC_IsConversionDone:	
  1502                           ; 1 bytes @ 0x0
  1503                           
  1504  0070                     ?_EUSART_Initialize:	
  1505                           ; 1 bytes @ 0x0
  1506                           
  1507  0070                     ?_EUSART_Write:	
  1508                           ; 1 bytes @ 0x0
  1509                           
  1510  0070                     ??_EUSART_Write:	
  1511                           ; 1 bytes @ 0x0
  1512                           
  1513  0070                     ?_main:	
  1514                           ; 1 bytes @ 0x0
  1515                           
  1516  0070                     ?__Umul8_16:	
  1517                           ; 1 bytes @ 0x0
  1518                           
  1519  0070                     ?_ADC_GetConversionResult:	
  1520                           ; 2 bytes @ 0x0
  1521                           
  1522  0070                     ?___lwdiv:	
  1523                           ; 2 bytes @ 0x0
  1524                           
  1525  0070                     ?___lwmod:	
  1526                           ; 2 bytes @ 0x0
  1527                           
  1528  0070                     ?___xxtofl:	
  1529                           ; 2 bytes @ 0x0
  1530                           
  1531  0070                     EUSART_Write@txData:	
  1532                           ; 4 bytes @ 0x0
  1533                           
  1534  0070                     Ds_Iniciar_displays@d1:	
  1535                           ; 1 bytes @ 0x0
  1536                           
  1537  0070                     __Umul8_16@multiplicand:	
  1538                           ; 1 bytes @ 0x0
  1539                           
  1540  0070                     EUSART_SetFramingErrorHandler@interruptHandler:	
  1541                           ; 1 bytes @ 0x0
  1542                           
  1543  0070                     EUSART_SetOverrunErrorHandler@interruptHandler:	
  1544                           ; 2 bytes @ 0x0
  1545                           
  1546  0070                     EUSART_SetErrorHandler@interruptHandler:	
  1547                           ; 2 bytes @ 0x0
  1548                           
  1549  0070                     Tm_Inicie_periodico@periodo:	
  1550                           ; 2 bytes @ 0x0
  1551                           
  1552  0070                     ___lwdiv@divisor:	
  1553                           ; 2 bytes @ 0x0
  1554                           
  1555  0070                     ___lwmod@divisor:	
  1556                           ; 2 bytes @ 0x0
  1557                           
  1558  0070                     ___xxtofl@val:	
  1559                           ; 2 bytes @ 0x0
  1560                           
  1561                           
  1562                           ; 4 bytes @ 0x0
  1563  0070                     	ds	1
  1564  0071                     Ds_Iniciar_displays@d2:
  1565                           
  1566                           ; 1 bytes @ 0x1
  1567  0071                     	ds	1
  1568  0072                     ??_EUSART_SetFramingErrorHandler:
  1569  0072                     ??_EUSART_SetOverrunErrorHandler:	
  1570                           ; 1 bytes @ 0x2
  1571                           
  1572  0072                     ??_EUSART_SetErrorHandler:	
  1573                           ; 1 bytes @ 0x2
  1574                           
  1575  0072                     ??_SYSTEM_Initialize:	
  1576                           ; 1 bytes @ 0x2
  1577                           
  1578  0072                     ??_Tm_Inicie_periodico:	
  1579                           ; 1 bytes @ 0x2
  1580                           
  1581  0072                     ??__Umul8_16:	
  1582                           ; 1 bytes @ 0x2
  1583                           
  1584  0072                     ??_ADC_GetConversionResult:	
  1585                           ; 1 bytes @ 0x2
  1586                           
  1587  0072                     ??_EUSART_Initialize:	
  1588                           ; 1 bytes @ 0x2
  1589                           
  1590  0072                     Ds_Iniciar_displays@d3:	
  1591                           ; 1 bytes @ 0x2
  1592                           
  1593  0072                     Ds_Encienda_Disp@dispNum:	
  1594                           ; 1 bytes @ 0x2
  1595                           
  1596  0072                     Ds_BCD@digito:	
  1597                           ; 1 bytes @ 0x2
  1598                           
  1599  0072                     ___lwdiv@dividend:	
  1600                           ; 1 bytes @ 0x2
  1601                           
  1602  0072                     ___lwmod@dividend:	
  1603                           ; 2 bytes @ 0x2
  1604                           
  1605                           
  1606                           ; 2 bytes @ 0x2
  1607  0072                     	ds	1
  1608  0073                     Tm_Inicie_periodico@ctp:
  1609  0073                     Ds_Iniciar_displays@tE:	
  1610                           ; 1 bytes @ 0x3
  1611                           
  1612                           
  1613                           ; 1 bytes @ 0x3
  1614  0073                     	ds	1
  1615  0074                     ??___lwdiv:
  1616  0074                     ??___lwmod:	
  1617                           ; 1 bytes @ 0x4
  1618                           
  1619  0074                     ??___xxtofl:	
  1620                           ; 1 bytes @ 0x4
  1621                           
  1622  0074                     Ds_Iniciar_displays@tA:	
  1623                           ; 1 bytes @ 0x4
  1624                           
  1625  0074                     __Umul8_16@product:	
  1626                           ; 1 bytes @ 0x4
  1627                           
  1628                           
  1629                           ; 2 bytes @ 0x4
  1630  0074                     	ds	1
  1631  0075                     ??_Ds_Iniciar_displays:
  1632  0075                     ___lwmod@counter:	
  1633                           ; 1 bytes @ 0x5
  1634                           
  1635  0075                     ___lwdiv@quotient:	
  1636                           ; 1 bytes @ 0x5
  1637                           
  1638                           
  1639                           ; 2 bytes @ 0x5
  1640  0075                     	ds	1
  1641  0076                     Ds_Iniciar_displays@dsp:
  1642  0076                     __Umul8_16@word_mpld:	
  1643                           ; 1 bytes @ 0x6
  1644                           
  1645                           
  1646                           ; 2 bytes @ 0x6
  1647  0076                     	ds	1
  1648  0077                     ___lwdiv@counter:
  1649                           
  1650                           ; 1 bytes @ 0x7
  1651  0077                     	ds	1
  1652  0078                     ?_Ds_Separar_Digito:
  1653  0078                     __Umul8_16@multiplier:	
  1654                           ; 1 bytes @ 0x8
  1655                           
  1656  0078                     ___xxtofl@sign:	
  1657                           ; 1 bytes @ 0x8
  1658                           
  1659  0078                     Ds_Separar_Digito@Recibido:	
  1660                           ; 1 bytes @ 0x8
  1661                           
  1662                           
  1663                           ; 2 bytes @ 0x8
  1664  0078                     	ds	1
  1665  0079                     ___xxtofl@exp:
  1666                           
  1667                           ; 1 bytes @ 0x9
  1668  0079                     	ds	1
  1669  007A                     ??_Ds_Separar_Digito:
  1670  007A                     ___xxtofl@arg:	
  1671                           ; 1 bytes @ 0xA
  1672                           
  1673                           
  1674                           ; 4 bytes @ 0xA
  1675  007A                     	ds	1
  1676  007B                     Ds_Separar_Digito@dsp:
  1677                           
  1678                           ; 1 bytes @ 0xB
  1679  007B                     	ds	3
  1680  007E                     ??_Ds_Regla_de_3:
  1681                           
  1682                           	psect	cstackBANK0
  1683  0020                     __pcstackBANK0:	
  1684                           ; 1 bytes @ 0xE
  1685                           
  1686  0020                     ?___flmul:
  1687  0020                     ___flmul@b:	
  1688                           ; 4 bytes @ 0x0
  1689                           
  1690                           
  1691                           ; 4 bytes @ 0x0
  1692  0020                     	ds	4
  1693  0024                     ___flmul@a:
  1694                           
  1695                           ; 4 bytes @ 0x4
  1696  0024                     	ds	4
  1697  0028                     ??___flmul:
  1698                           
  1699                           ; 1 bytes @ 0x8
  1700  0028                     	ds	5
  1701  002D                     ___flmul@sign:
  1702                           
  1703                           ; 1 bytes @ 0xD
  1704  002D                     	ds	1
  1705  002E                     ___flmul@grs:
  1706                           
  1707                           ; 4 bytes @ 0xE
  1708  002E                     	ds	4
  1709  0032                     ___flmul@aexp:
  1710                           
  1711                           ; 1 bytes @ 0x12
  1712  0032                     	ds	1
  1713  0033                     ___flmul@bexp:
  1714                           
  1715                           ; 1 bytes @ 0x13
  1716  0033                     	ds	1
  1717  0034                     ___flmul@prod:
  1718                           
  1719                           ; 4 bytes @ 0x14
  1720  0034                     	ds	4
  1721  0038                     ___flmul@temp:
  1722                           
  1723                           ; 2 bytes @ 0x18
  1724  0038                     	ds	2
  1725  003A                     ?___fltol:
  1726  003A                     ___fltol@f1:	
  1727                           ; 4 bytes @ 0x1A
  1728                           
  1729                           
  1730                           ; 4 bytes @ 0x1A
  1731  003A                     	ds	4
  1732  003E                     ??___fltol:
  1733                           
  1734                           ; 1 bytes @ 0x1E
  1735  003E                     	ds	5
  1736  0043                     ___fltol@sign1:
  1737                           
  1738                           ; 1 bytes @ 0x23
  1739  0043                     	ds	1
  1740  0044                     ___fltol@exp1:
  1741                           
  1742                           ; 1 bytes @ 0x24
  1743  0044                     	ds	1
  1744  0045                     ?_Ds_Regla_de_3:
  1745  0045                     Ds_Regla_de_3@Leido:	
  1746                           ; 2 bytes @ 0x25
  1747                           
  1748                           
  1749                           ; 2 bytes @ 0x25
  1750  0045                     	ds	2
  1751  0047                     Ds_Regla_de_3@salidaa:
  1752                           
  1753                           ; 4 bytes @ 0x27
  1754  0047                     	ds	4
  1755  004B                     Ds_Regla_de_3@salida:
  1756                           
  1757                           ; 2 bytes @ 0x2B
  1758  004B                     	ds	2
  1759  004D                     ??_main:
  1760                           
  1761                           ; 1 bytes @ 0x2D
  1762  004D                     	ds	4
  1763  0051                     main@ADC_Value:
  1764                           
  1765                           ; 2 bytes @ 0x31
  1766  0051                     	ds	2
  1767  0053                     main@Valor_Convertido:
  1768                           
  1769                           ; 2 bytes @ 0x33
  1770  0053                     	ds	2
  1771  0055                     main@Apagar_7seg:
  1772                           
  1773                           ; 1 bytes @ 0x35
  1774  0055                     	ds	1
  1775  0056                     main@Apagar_Tr:
  1776                           
  1777                           ; 1 bytes @ 0x36
  1778  0056                     	ds	1
  1779  0057                     main@Pack:
  1780                           
  1781                           ; 6 bytes @ 0x37
  1782  0057                     	ds	6
  1783  005D                     main@My_Per_1000ms:
  1784                           
  1785                           ; 9 bytes @ 0x3D
  1786  005D                     	ds	9
  1787  0066                     main@My_Display:
  1788                           
  1789                           ; 8 bytes @ 0x46
  1790  0066                     	ds	8
  1791                           
  1792                           	psect	maintext
  1793  044B                     __pmaintext:	
  1794 ;;
  1795 ;;Main: autosize = 0, tempsize = 4, incstack = 0, save=0
  1796 ;;
  1797 ;; *************** function _main *****************
  1798 ;; Defined at:
  1799 ;;		line 8 in file "main.c"
  1800 ;; Parameters:    Size  Location     Type
  1801 ;;		None
  1802 ;; Auto vars:     Size  Location     Type
  1803 ;;  My_Per_1000m    9   61[BANK0 ] struct Tm_Periodico
  1804 ;;  My_Display      8   70[BANK0 ] struct Ds_Display
  1805 ;;  Pack            6   55[BANK0 ] unsigned char [6]
  1806 ;;  Valor_Conver    2   51[BANK0 ] unsigned short 
  1807 ;;  ADC_Value       2   49[BANK0 ] unsigned short 
  1808 ;;  Bandera_Slee    1    0        unsigned char 
  1809 ;;  Apagar_Tr       1   54[BANK0 ] unsigned char 
  1810 ;;  Apagar_7seg     1   53[BANK0 ] unsigned char 
  1811 ;;  enviar          1    0        unsigned char 
  1812 ;; Return value:  Size  Location     Type
  1813 ;;                  1    wreg      void 
  1814 ;; Registers used:
  1815 ;;		wreg, fsr0l, fsr0h, fsr1l, fsr1h, status,2, status,0, pclath, cstack
  1816 ;; Tracked objects:
  1817 ;;		On entry : B1F/0
  1818 ;;		On exit  : 0/0
  1819 ;;		Unchanged: 0/0
  1820 ;; Data sizes:     COMMON   BANK0   BANK1   BANK2   BANK3   BANK4
  1821 ;;      Params:         0       0       0       0       0       0
  1822 ;;      Locals:         0      29       0       0       0       0
  1823 ;;      Temps:          0       4       0       0       0       0
  1824 ;;      Totals:         0      33       0       0       0       0
  1825 ;;Total ram usage:       33 bytes
  1826 ;; Hardware stack levels required when called: 3
  1827 ;; This function calls:
  1828 ;;		_ADC_GetConversionResult
  1829 ;;		_ADC_Initialize
  1830 ;;		_ADC_IsConversionDone
  1831 ;;		_ADC_StartConversion
  1832 ;;		_Ds_BCD
  1833 ;;		_Ds_Encienda_Disp
  1834 ;;		_Ds_Iniciar_displays
  1835 ;;		_Ds_Regla_de_3
  1836 ;;		_Ds_Separar_Digito
  1837 ;;		_EUSART_Write
  1838 ;;		_SYSTEM_Initialize
  1839 ;;		_TMR6_StartTimer
  1840 ;;		_Tm_Inicie_periodico
  1841 ;; This function is called by:
  1842 ;;		Startup code after reset
  1843 ;; This function uses a non-reentrant model
  1844 ;;
  1845                           
  1846                           
  1847                           ;psect for function _main
  1848  044B                     _main:
  1849  044B                     l2182:	
  1850                           ;incstack = 0
  1851                           ; Regs used in _main: [wreg-fsr1h+status,2+status,0+pclath+cstack]
  1852                           
  1853                           
  1854                           ;main.c: 10:     uint16_t Valor_Convertido=0;
  1855  044B  0020               	movlb	0	; select bank0
  1856  044C  01D3               	clrf	main@Valor_Convertido
  1857  044D  01D4               	clrf	main@Valor_Convertido+1
  1858  044E                     l2184:
  1859                           
  1860                           ;main.c: 11:     uint8_t Pack[6];;main.c: 12:      char Apagar_7seg=11;
  1861  044E  300B               	movlw	11
  1862  044F  00CD               	movwf	??_main
  1863  0450  084D               	movf	??_main,w
  1864  0451  00D5               	movwf	main@Apagar_7seg
  1865  0452                     l2186:
  1866                           
  1867                           ;main.c: 13:  char Apagar_Tr=0;
  1868  0452  01D6               	clrf	main@Apagar_Tr
  1869  0453                     l2188:
  1870  0453                     l2190:
  1871  0453                     l2192:
  1872                           
  1873                           ;main.c: 16:  SYSTEM_Initialize();
  1874  0453  3181  2148  3184   	fcall	_SYSTEM_Initialize
  1875  0456                     l2194:
  1876                           
  1877                           ;main.c: 17:  Ds_Display My_Display;;main.c: 18:  Tm_Periodico My_Per_1000ms;;main.c: 19
      +                          :  Tm_Inicie_periodico (&My_Per_1000ms, 1000);
  1878  0456  30E8               	movlw	232
  1879  0457  00F0               	movwf	Tm_Inicie_periodico@periodo
  1880  0458  3003               	movlw	3
  1881  0459  00F1               	movwf	Tm_Inicie_periodico@periodo+1
  1882  045A  305D               	movlw	(low (main@My_Per_1000ms| 0))& (0+255)
  1883  045B  3181  2171  3184   	fcall	_Tm_Inicie_periodico
  1884  045E                     l2196:
  1885                           
  1886                           ;main.c: 20:  ADC_Initialize();
  1887  045E  3181  2120  3184   	fcall	_ADC_Initialize
  1888  0461                     l2198:
  1889                           
  1890                           ;main.c: 21:     ADCON0 = ADCON0 | 0b00100001;
  1891  0461  0021               	movlb	1	; select bank1
  1892  0462  081D               	movf	29,w	;volatile
  1893  0463  3821               	iorlw	33
  1894  0464  009D               	movwf	29	;volatile
  1895  0465                     l2200:
  1896                           
  1897                           ;main.c: 22:     ADCON0 = ADCON0 & 0b10100011;
  1898  0465  081D               	movf	29,w	;volatile
  1899  0466  39A3               	andlw	163
  1900  0467  009D               	movwf	29	;volatile
  1901  0468                     l2202:
  1902                           
  1903                           ;main.c: 23:     ADCON1 = 0b11100000;
  1904  0468  30E0               	movlw	224
  1905  0469  009E               	movwf	30	;volatile
  1906                           
  1907                           ;main.c: 24:  Ds_Iniciar_displays (&My_Display, 4, 5, 6, 4, 1);
  1908  046A  3004               	movlw	4
  1909  046B  0020               	movlb	0	; select bank0
  1910  046C  00CD               	movwf	??_main
  1911  046D  084D               	movf	??_main,w
  1912  046E  00F0               	movwf	Ds_Iniciar_displays@d1
  1913  046F  3005               	movlw	5
  1914  0470  00CE               	movwf	??_main+1
  1915  0471  084E               	movf	??_main+1,w
  1916  0472  00F1               	movwf	Ds_Iniciar_displays@d2
  1917  0473  3006               	movlw	6
  1918  0474  00CF               	movwf	??_main+2
  1919  0475  084F               	movf	??_main+2,w
  1920  0476  00F2               	movwf	Ds_Iniciar_displays@d3
  1921  0477  3004               	movlw	4
  1922  0478  00D0               	movwf	??_main+3
  1923  0479  0850               	movf	??_main+3,w
  1924  047A  00F3               	movwf	Ds_Iniciar_displays@tE
  1925  047B  01F4               	clrf	Ds_Iniciar_displays@tA
  1926  047C  0AF4               	incf	Ds_Iniciar_displays@tA,f
  1927  047D  3066               	movlw	(low (main@My_Display| 0))& (0+255)
  1928  047E  3182  22AF  3184   	fcall	_Ds_Iniciar_displays
  1929  0481                     l2204:
  1930                           
  1931                           ;main.c: 25:     TMR6_StartTimer();
  1932  0481  3180  20FA  3184   	fcall	_TMR6_StartTimer
  1933  0484                     l2206:
  1934                           
  1935                           ;main.c: 28:         ADC_StartConversion();
  1936  0484  3180  20F7  3184   	fcall	_ADC_StartConversion
  1937  0487                     l2208:
  1938  0487                     l2210:	
  1939                           ;main.c: 31:   while(!ADC_IsConversionDone()){
  1940                           
  1941                           
  1942                           ;main.c: 31:   while(!ADC_IsConversionDone()){
  1943  0487  3181  2119  3184   	fcall	_ADC_IsConversionDone
  1944  048A  3A00               	xorlw	0
  1945  048B  1903               	skipnz
  1946  048C  2C8E               	goto	u1461
  1947  048D  2C8F               	goto	u1460
  1948  048E                     u1461:
  1949  048E  2C87               	goto	l2210
  1950  048F                     u1460:
  1951  048F                     l2212:
  1952                           
  1953                           ;main.c: 35:   ADC_Value = ADC_GetConversionResult();
  1954  048F  3181  2101  3184   	fcall	_ADC_GetConversionResult
  1955  0492  0871               	movf	?_ADC_GetConversionResult+1,w
  1956  0493  0020               	movlb	0	; select bank0
  1957  0494  00D2               	movwf	main@ADC_Value+1
  1958  0495  0870               	movf	?_ADC_GetConversionResult,w
  1959  0496  00D1               	movwf	main@ADC_Value
  1960  0497                     l2214:
  1961                           
  1962                           ;main.c: 36:   Valor_Convertido = Ds_Regla_de_3(ADC_Value);
  1963  0497  0852               	movf	main@ADC_Value+1,w
  1964  0498  00C6               	movwf	Ds_Regla_de_3@Leido+1
  1965  0499  0851               	movf	main@ADC_Value,w
  1966  049A  00C5               	movwf	Ds_Regla_de_3@Leido
  1967  049B  3182  2272  3184   	fcall	_Ds_Regla_de_3
  1968  049E  0020               	movlb	0	; select bank0
  1969  049F  0846               	movf	?_Ds_Regla_de_3+1,w
  1970  04A0  00D4               	movwf	main@Valor_Convertido+1
  1971  04A1  0845               	movf	?_Ds_Regla_de_3,w
  1972  04A2  00D3               	movwf	main@Valor_Convertido
  1973  04A3                     l2216:
  1974                           
  1975                           ;main.c: 37:   Ds_Separar_Digito(&My_Display, Valor_Convertido);
  1976  04A3  0854               	movf	main@Valor_Convertido+1,w
  1977  04A4  00F9               	movwf	Ds_Separar_Digito@Recibido+1
  1978  04A5  0853               	movf	main@Valor_Convertido,w
  1979  04A6  00F8               	movwf	Ds_Separar_Digito@Recibido
  1980  04A7  3066               	movlw	(low (main@My_Display| 0))& (0+255)
  1981  04A8  3182  22ED  3184   	fcall	_Ds_Separar_Digito
  1982  04AB                     l2218:
  1983                           
  1984                           ;main.c: 39:   Pack[0]=(My_Display.D3 + '0');
  1985  04AB  0020               	movlb	0	; select bank0
  1986  04AC  0869               	movf	main@My_Display+3,w
  1987  04AD  3E30               	addlw	48
  1988  04AE  00CD               	movwf	??_main
  1989  04AF  084D               	movf	??_main,w
  1990  04B0  00D7               	movwf	main@Pack
  1991  04B1                     l2220:
  1992                           
  1993                           ;main.c: 40:   Pack[1]=(',');
  1994  04B1  302C               	movlw	44
  1995  04B2  00CD               	movwf	??_main
  1996  04B3  084D               	movf	??_main,w
  1997  04B4  00D8               	movwf	main@Pack+1
  1998  04B5                     l2222:
  1999                           
  2000                           ;main.c: 41:   Pack[2]=(My_Display.D2 + '0');
  2001  04B5  0868               	movf	main@My_Display+2,w
  2002  04B6  3E30               	addlw	48
  2003  04B7  00CD               	movwf	??_main
  2004  04B8  084D               	movf	??_main,w
  2005  04B9  00D9               	movwf	main@Pack+2
  2006  04BA                     l2224:
  2007                           
  2008                           ;main.c: 42:   Pack[3]=(My_Display.D1 + '0');
  2009  04BA  0867               	movf	main@My_Display+1,w
  2010  04BB  3E30               	addlw	48
  2011  04BC  00CD               	movwf	??_main
  2012  04BD  084D               	movf	??_main,w
  2013  04BE  00DA               	movwf	main@Pack+3
  2014  04BF                     l2226:
  2015                           
  2016                           ;main.c: 43:   Pack[5]=0x0D;
  2017  04BF  300D               	movlw	13
  2018  04C0  00CD               	movwf	??_main
  2019  04C1  084D               	movf	??_main,w
  2020  04C2  00DC               	movwf	main@Pack+5
  2021  04C3                     l2228:
  2022                           
  2023                           ;main.c: 45:   EUSART_Write(Pack[0]);
  2024  04C3  0857               	movf	main@Pack,w
  2025  04C4  3181  2128  3184   	fcall	_EUSART_Write
  2026  04C7  0064               	clrwdt	;# 
  2027  04C8                     l2230:
  2028  04C8                     l2232:
  2029                           
  2030                           ;main.c: 48:   EUSART_Write(Pack[1]);
  2031  04C8  0020               	movlb	0	; select bank0
  2032  04C9  0858               	movf	main@Pack+1,w
  2033  04CA  3181  2128  3184   	fcall	_EUSART_Write
  2034  04CD                     l2234:
  2035                           
  2036                           ;main.c: 49:   EUSART_Write(Pack[2]);
  2037  04CD  0020               	movlb	0	; select bank0
  2038  04CE  0859               	movf	main@Pack+2,w
  2039  04CF  3181  2128  3184   	fcall	_EUSART_Write
  2040  04D2                     l2236:
  2041                           
  2042                           ;main.c: 50:   EUSART_Write(Pack[3]);
  2043  04D2  0020               	movlb	0	; select bank0
  2044  04D3  085A               	movf	main@Pack+3,w
  2045  04D4  3181  2128  3184   	fcall	_EUSART_Write
  2046  04D7                     l2238:
  2047                           
  2048                           ;main.c: 51:   EUSART_Write(Pack[4]);
  2049  04D7  0020               	movlb	0	; select bank0
  2050  04D8  085B               	movf	main@Pack+4,w
  2051  04D9  3181  2128  3184   	fcall	_EUSART_Write
  2052  04DC                     l2240:
  2053                           
  2054                           ;main.c: 52:   EUSART_Write(Pack[5]);
  2055  04DC  0020               	movlb	0	; select bank0
  2056  04DD  085C               	movf	main@Pack+5,w
  2057  04DE  3181  2128  3184   	fcall	_EUSART_Write
  2058  04E1                     l2242:
  2059  04E1                     l2244:	
  2060                           ;main.c: 54:   if (Bandera_Sleep){
  2061                           
  2062  04E1                     l2246:
  2063                           
  2064                           ;main.c: 56:             Ds_BCD(Apagar_7seg);
  2065  04E1  0020               	movlb	0	; select bank0
  2066  04E2  0855               	movf	main@Apagar_7seg,w
  2067  04E3  3183  23BA  3184   	fcall	_Ds_BCD
  2068  04E6                     l2248:
  2069                           
  2070                           ;main.c: 57:             Ds_Encienda_Disp(Apagar_Tr);
  2071  04E6  0020               	movlb	0	; select bank0
  2072  04E7  0856               	movf	main@Apagar_Tr,w
  2073  04E8  3181  21D5  3184   	fcall	_Ds_Encienda_Disp
  2074  04EB  0063               	sleep	;# 
  2075  04EC  2C84               	goto	l2206
  2076  04ED  3180  2802         	ljmp	start
  2077  04EF                     __end_of_main:
  2078                           
  2079                           	psect	text1
  2080  0171                     __ptext1:	
  2081 ;; *************** function _Tm_Inicie_periodico *****************
  2082 ;; Defined at:
  2083 ;;		line 11 in file "nuestrostimers.c"
  2084 ;; Parameters:    Size  Location     Type
  2085 ;;  ctp             1    wreg     PTR struct Tm_Periodico
  2086 ;;		 -> main@My_Per_1000ms(9), 
  2087 ;;  periodo         2    0[COMMON] unsigned int 
  2088 ;; Auto vars:     Size  Location     Type
  2089 ;;  ctp             1    3[COMMON] PTR struct Tm_Periodico
  2090 ;;		 -> main@My_Per_1000ms(9), 
  2091 ;; Return value:  Size  Location     Type
  2092 ;;                  1    wreg      void 
  2093 ;; Registers used:
  2094 ;;		wreg, fsr1l, fsr1h, status,2, status,0
  2095 ;; Tracked objects:
  2096 ;;		On entry : 0/0
  2097 ;;		On exit  : 0/0
  2098 ;;		Unchanged: 0/0
  2099 ;; Data sizes:     COMMON   BANK0   BANK1   BANK2   BANK3   BANK4
  2100 ;;      Params:         2       0       0       0       0       0
  2101 ;;      Locals:         1       0       0       0       0       0
  2102 ;;      Temps:          1       0       0       0       0       0
  2103 ;;      Totals:         4       0       0       0       0       0
  2104 ;;Total ram usage:        4 bytes
  2105 ;; Hardware stack levels used: 1
  2106 ;; This function calls:
  2107 ;;		Nothing
  2108 ;; This function is called by:
  2109 ;;		_main
  2110 ;; This function uses a non-reentrant model
  2111 ;;
  2112                           
  2113                           
  2114                           ;psect for function _Tm_Inicie_periodico
  2115  0171                     _Tm_Inicie_periodico:
  2116                           
  2117                           ;incstack = 0
  2118                           ; Regs used in _Tm_Inicie_periodico: [wreg+fsr1l+fsr1h+status,2+status,0]
  2119                           ;Tm_Inicie_periodico@ctp stored from wreg
  2120  0171  00F3               	movwf	Tm_Inicie_periodico@ctp
  2121  0172                     l2116:
  2122                           
  2123                           ;nuestrostimers.c: 11: void Tm_Inicie_periodico (Tm_Periodico *ctp,unsigned int periodo)
      +                          ;nuestrostimers.c: 12: {;nuestrostimers.c: 13:  ctp->banderas |= 0x01U;
  2124  0172  0873               	movf	Tm_Inicie_periodico@ctp,w
  2125  0173  3E08               	addlw	8
  2126  0174  0086               	movwf	6
  2127  0175  0187               	clrf	7
  2128  0176  1401               	bsf	1,0
  2129                           
  2130                           ;nuestrostimers.c: 14:  ctp->banderas &= ~0x02U;
  2131  0177  30FD               	movlw	253
  2132  0178  00F2               	movwf	??_Tm_Inicie_periodico
  2133  0179  0873               	movf	Tm_Inicie_periodico@ctp,w
  2134  017A  3E08               	addlw	8
  2135  017B  0086               	movwf	6
  2136  017C  0187               	clrf	7
  2137  017D  0872               	movf	??_Tm_Inicie_periodico,w
  2138  017E  0581               	andwf	1,f
  2139                           
  2140                           ;nuestrostimers.c: 15:  ctp->contador = ctp->periodo = periodo;
  2141  017F  0873               	movf	Tm_Inicie_periodico@ctp,w
  2142  0180  3E02               	addlw	2
  2143  0181  0086               	movwf	6
  2144  0182  0187               	clrf	7
  2145  0183  0870               	movf	Tm_Inicie_periodico@periodo,w
  2146  0184  3FC0               	movwi [0]fsr1
  2147  0185  0871               	movf	Tm_Inicie_periodico@periodo+1,w
  2148  0186  3FC1               	movwi [1]fsr1
  2149  0187  0873               	movf	Tm_Inicie_periodico@ctp,w
  2150  0188  0086               	movwf	6
  2151  0189  0187               	clrf	7
  2152  018A  0870               	movf	Tm_Inicie_periodico@periodo,w
  2153  018B  3FC0               	movwi [0]fsr1
  2154  018C  0871               	movf	Tm_Inicie_periodico@periodo+1,w
  2155  018D  3FC1               	movwi [1]fsr1
  2156  018E                     l265:
  2157  018E  0008               	return
  2158  018F                     __end_of_Tm_Inicie_periodico:
  2159                           
  2160                           	psect	text2
  2161  00FA                     __ptext2:	
  2162 ;; *************** function _TMR6_StartTimer *****************
  2163 ;; Defined at:
  2164 ;;		line 79 in file "tmr6.c"
  2165 ;; Parameters:    Size  Location     Type
  2166 ;;		None
  2167 ;; Auto vars:     Size  Location     Type
  2168 ;;		None
  2169 ;; Return value:  Size  Location     Type
  2170 ;;                  1    wreg      void 
  2171 ;; Registers used:
  2172 ;;		None
  2173 ;; Tracked objects:
  2174 ;;		On entry : 0/0
  2175 ;;		On exit  : 0/0
  2176 ;;		Unchanged: 0/0
  2177 ;; Data sizes:     COMMON   BANK0   BANK1   BANK2   BANK3   BANK4
  2178 ;;      Params:         0       0       0       0       0       0
  2179 ;;      Locals:         0       0       0       0       0       0
  2180 ;;      Temps:          0       0       0       0       0       0
  2181 ;;      Totals:         0       0       0       0       0       0
  2182 ;;Total ram usage:        0 bytes
  2183 ;; Hardware stack levels used: 1
  2184 ;; This function calls:
  2185 ;;		Nothing
  2186 ;; This function is called by:
  2187 ;;		_main
  2188 ;; This function uses a non-reentrant model
  2189 ;;
  2190                           
  2191                           
  2192                           ;psect for function _TMR6_StartTimer
  2193  00FA                     _TMR6_StartTimer:
  2194  00FA                     l2132:	
  2195                           ;incstack = 0
  2196                           ; Regs used in _TMR6_StartTimer: []
  2197                           
  2198                           
  2199                           ;tmr6.c: 82:     T6CONbits.TMR6ON = 1;
  2200  00FA  0028               	movlb	8	; select bank8
  2201  00FB  151E               	bsf	30,2	;volatile
  2202  00FC                     l246:
  2203  00FC  0008               	return
  2204  00FD                     __end_of_TMR6_StartTimer:
  2205                           
  2206                           	psect	text3
  2207  0148                     __ptext3:	
  2208 ;; *************** function _SYSTEM_Initialize *****************
  2209 ;; Defined at:
  2210 ;;		line 50 in file "mcc.c"
  2211 ;; Parameters:    Size  Location     Type
  2212 ;;		None
  2213 ;; Auto vars:     Size  Location     Type
  2214 ;;		None
  2215 ;; Return value:  Size  Location     Type
  2216 ;;                  1    wreg      void 
  2217 ;; Registers used:
  2218 ;;		wreg, status,2, status,0, pclath, cstack
  2219 ;; Tracked objects:
  2220 ;;		On entry : 0/0
  2221 ;;		On exit  : 0/0
  2222 ;;		Unchanged: 0/0
  2223 ;; Data sizes:     COMMON   BANK0   BANK1   BANK2   BANK3   BANK4
  2224 ;;      Params:         0       0       0       0       0       0
  2225 ;;      Locals:         0       0       0       0       0       0
  2226 ;;      Temps:          0       0       0       0       0       0
  2227 ;;      Totals:         0       0       0       0       0       0
  2228 ;;Total ram usage:        0 bytes
  2229 ;; Hardware stack levels used: 1
  2230 ;; Hardware stack levels required when called: 2
  2231 ;; This function calls:
  2232 ;;		_ADC_Initialize
  2233 ;;		_EUSART_Initialize
  2234 ;;		_OSCILLATOR_Initialize
  2235 ;;		_PIN_MANAGER_Initialize
  2236 ;;		_TMR6_Initialize
  2237 ;;		_WDT_Initialize
  2238 ;; This function is called by:
  2239 ;;		_main
  2240 ;; This function uses a non-reentrant model
  2241 ;;
  2242                           
  2243                           
  2244                           ;psect for function _SYSTEM_Initialize
  2245  0148                     _SYSTEM_Initialize:
  2246  0148                     l2114:	
  2247                           ;incstack = 0
  2248                           ; Regs used in _SYSTEM_Initialize: [wreg+status,2+status,0+pclath+cstack]
  2249                           
  2250                           
  2251                           ;mcc.c: 53:     PIN_MANAGER_Initialize();
  2252  0148  3181  215B  3181   	fcall	_PIN_MANAGER_Initialize
  2253                           
  2254                           ;mcc.c: 54:     OSCILLATOR_Initialize();
  2255  014B  3181  213C  3181   	fcall	_OSCILLATOR_Initialize
  2256                           
  2257                           ;mcc.c: 55:     WDT_Initialize();
  2258  014E  3180  20FD  3181   	fcall	_WDT_Initialize
  2259                           
  2260                           ;mcc.c: 56:     TMR6_Initialize();
  2261  0151  3181  2132  3181   	fcall	_TMR6_Initialize
  2262                           
  2263                           ;mcc.c: 57:     ADC_Initialize();
  2264  0154  3181  2120  3181   	fcall	_ADC_Initialize
  2265                           
  2266                           ;mcc.c: 58:     EUSART_Initialize();
  2267  0157  3181  21B2  3181   	fcall	_EUSART_Initialize
  2268  015A                     l193:
  2269  015A  0008               	return
  2270  015B                     __end_of_SYSTEM_Initialize:
  2271                           
  2272                           	psect	text4
  2273  00FD                     __ptext4:	
  2274 ;; *************** function _WDT_Initialize *****************
  2275 ;; Defined at:
  2276 ;;		line 75 in file "mcc.c"
  2277 ;; Parameters:    Size  Location     Type
  2278 ;;		None
  2279 ;; Auto vars:     Size  Location     Type
  2280 ;;		None
  2281 ;; Return value:  Size  Location     Type
  2282 ;;                  1    wreg      void 
  2283 ;; Registers used:
  2284 ;;		wreg
  2285 ;; Tracked objects:
  2286 ;;		On entry : 0/0
  2287 ;;		On exit  : 0/0
  2288 ;;		Unchanged: 0/0
  2289 ;; Data sizes:     COMMON   BANK0   BANK1   BANK2   BANK3   BANK4
  2290 ;;      Params:         0       0       0       0       0       0
  2291 ;;      Locals:         0       0       0       0       0       0
  2292 ;;      Temps:          0       0       0       0       0       0
  2293 ;;      Totals:         0       0       0       0       0       0
  2294 ;;Total ram usage:        0 bytes
  2295 ;; Hardware stack levels used: 1
  2296 ;; This function calls:
  2297 ;;		Nothing
  2298 ;; This function is called by:
  2299 ;;		_SYSTEM_Initialize
  2300 ;; This function uses a non-reentrant model
  2301 ;;
  2302                           
  2303                           
  2304                           ;psect for function _WDT_Initialize
  2305  00FD                     _WDT_Initialize:
  2306  00FD                     l1822:	
  2307                           ;incstack = 0
  2308                           ; Regs used in _WDT_Initialize: [wreg]
  2309                           
  2310                           
  2311                           ;mcc.c: 78:     WDTCON = 0x14;
  2312  00FD  3014               	movlw	20
  2313  00FE  0021               	movlb	1	; select bank1
  2314  00FF  0097               	movwf	23	;volatile
  2315  0100                     l202:
  2316  0100  0008               	return
  2317  0101                     __end_of_WDT_Initialize:
  2318                           
  2319                           	psect	text5
  2320  0132                     __ptext5:	
  2321 ;; *************** function _TMR6_Initialize *****************
  2322 ;; Defined at:
  2323 ;;		line 62 in file "tmr6.c"
  2324 ;; Parameters:    Size  Location     Type
  2325 ;;		None
  2326 ;; Auto vars:     Size  Location     Type
  2327 ;;		None
  2328 ;; Return value:  Size  Location     Type
  2329 ;;                  1    wreg      void 
  2330 ;; Registers used:
  2331 ;;		wreg, status,2
  2332 ;; Tracked objects:
  2333 ;;		On entry : 0/0
  2334 ;;		On exit  : 0/0
  2335 ;;		Unchanged: 0/0
  2336 ;; Data sizes:     COMMON   BANK0   BANK1   BANK2   BANK3   BANK4
  2337 ;;      Params:         0       0       0       0       0       0
  2338 ;;      Locals:         0       0       0       0       0       0
  2339 ;;      Temps:          0       0       0       0       0       0
  2340 ;;      Totals:         0       0       0       0       0       0
  2341 ;;Total ram usage:        0 bytes
  2342 ;; Hardware stack levels used: 1
  2343 ;; This function calls:
  2344 ;;		Nothing
  2345 ;; This function is called by:
  2346 ;;		_SYSTEM_Initialize
  2347 ;; This function uses a non-reentrant model
  2348 ;;
  2349                           
  2350                           
  2351                           ;psect for function _TMR6_Initialize
  2352  0132                     _TMR6_Initialize:
  2353  0132                     l1824:	
  2354                           ;incstack = 0
  2355                           ; Regs used in _TMR6_Initialize: [wreg+status,2]
  2356                           
  2357                           
  2358                           ;tmr6.c: 67:     PR6 = 0x31;
  2359  0132  3031               	movlw	49
  2360  0133  0028               	movlb	8	; select bank8
  2361  0134  009D               	movwf	29	;volatile
  2362  0135                     l1826:
  2363                           
  2364                           ;tmr6.c: 70:     TMR6 = 0x00;
  2365  0135  019C               	clrf	28	;volatile
  2366  0136                     l1828:
  2367                           
  2368                           ;tmr6.c: 73:     PIR3bits.TMR6IF = 0;
  2369  0136  0020               	movlb	0	; select bank0
  2370  0137  1193               	bcf	19,3	;volatile
  2371  0138                     l1830:
  2372                           
  2373                           ;tmr6.c: 76:     T6CON = 0x4E;
  2374  0138  304E               	movlw	78
  2375  0139  0028               	movlb	8	; select bank8
  2376  013A  009E               	movwf	30	;volatile
  2377  013B                     l243:
  2378  013B  0008               	return
  2379  013C                     __end_of_TMR6_Initialize:
  2380                           
  2381                           	psect	text6
  2382  015B                     __ptext6:	
  2383 ;; *************** function _PIN_MANAGER_Initialize *****************
  2384 ;; Defined at:
  2385 ;;		line 55 in file "pin_manager.c"
  2386 ;; Parameters:    Size  Location     Type
  2387 ;;		None
  2388 ;; Auto vars:     Size  Location     Type
  2389 ;;		None
  2390 ;; Return value:  Size  Location     Type
  2391 ;;                  1    wreg      void 
  2392 ;; Registers used:
  2393 ;;		wreg, status,2
  2394 ;; Tracked objects:
  2395 ;;		On entry : 0/0
  2396 ;;		On exit  : 0/0
  2397 ;;		Unchanged: 0/0
  2398 ;; Data sizes:     COMMON   BANK0   BANK1   BANK2   BANK3   BANK4
  2399 ;;      Params:         0       0       0       0       0       0
  2400 ;;      Locals:         0       0       0       0       0       0
  2401 ;;      Temps:          0       0       0       0       0       0
  2402 ;;      Totals:         0       0       0       0       0       0
  2403 ;;Total ram usage:        0 bytes
  2404 ;; Hardware stack levels used: 1
  2405 ;; This function calls:
  2406 ;;		Nothing
  2407 ;; This function is called by:
  2408 ;;		_SYSTEM_Initialize
  2409 ;; This function uses a non-reentrant model
  2410 ;;
  2411                           
  2412                           
  2413                           ;psect for function _PIN_MANAGER_Initialize
  2414  015B                     _PIN_MANAGER_Initialize:
  2415  015B                     l1804:	
  2416                           ;incstack = 0
  2417                           ; Regs used in _PIN_MANAGER_Initialize: [wreg+status,2]
  2418                           
  2419                           
  2420                           ;pin_manager.c: 60:     LATA = 0x00;
  2421  015B  0022               	movlb	2	; select bank2
  2422  015C  018C               	clrf	12	;volatile
  2423                           
  2424                           ;pin_manager.c: 61:     LATB = 0x00;
  2425  015D  018D               	clrf	13	;volatile
  2426  015E                     l1806:
  2427                           
  2428                           ;pin_manager.c: 66:     TRISA = 0x20;
  2429  015E  3020               	movlw	32
  2430  015F  0021               	movlb	1	; select bank1
  2431  0160  008C               	movwf	12	;volatile
  2432  0161                     l1808:
  2433                           
  2434                           ;pin_manager.c: 67:     TRISB = 0xD6;
  2435  0161  30D6               	movlw	214
  2436  0162  008D               	movwf	13	;volatile
  2437  0163                     l1810:
  2438                           
  2439                           ;pin_manager.c: 72:     ANSELB = 0x38;
  2440  0163  3038               	movlw	56
  2441  0164  0023               	movlb	3	; select bank3
  2442  0165  008D               	movwf	13	;volatile
  2443  0166                     l1812:
  2444                           
  2445                           ;pin_manager.c: 73:     ANSELA = 0x1F;
  2446  0166  301F               	movlw	31
  2447  0167  008C               	movwf	12	;volatile
  2448                           
  2449                           ;pin_manager.c: 78:     WPUB = 0x00;
  2450  0168  0024               	movlb	4	; select bank4
  2451  0169  018D               	clrf	13	;volatile
  2452                           
  2453                           ;pin_manager.c: 79:     WPUA = 0x00;
  2454  016A  018C               	clrf	12	;volatile
  2455  016B                     l1814:
  2456                           
  2457                           ;pin_manager.c: 80:     OPTION_REGbits.nWPUEN = 1;
  2458  016B  0021               	movlb	1	; select bank1
  2459  016C  1795               	bsf	21,7	;volatile
  2460                           
  2461                           ;pin_manager.c: 86:     APFCON0 = 0x00;
  2462  016D  0022               	movlb	2	; select bank2
  2463  016E  019D               	clrf	29	;volatile
  2464                           
  2465                           ;pin_manager.c: 87:     APFCON1 = 0x00;
  2466  016F  019E               	clrf	30	;volatile
  2467  0170                     l227:
  2468  0170  0008               	return
  2469  0171                     __end_of_PIN_MANAGER_Initialize:
  2470                           
  2471                           	psect	text7
  2472  013C                     __ptext7:	
  2473 ;; *************** function _OSCILLATOR_Initialize *****************
  2474 ;; Defined at:
  2475 ;;		line 61 in file "mcc.c"
  2476 ;; Parameters:    Size  Location     Type
  2477 ;;		None
  2478 ;; Auto vars:     Size  Location     Type
  2479 ;;		None
  2480 ;; Return value:  Size  Location     Type
  2481 ;;                  1    wreg      void 
  2482 ;; Registers used:
  2483 ;;		wreg, status,2
  2484 ;; Tracked objects:
  2485 ;;		On entry : 0/0
  2486 ;;		On exit  : 0/0
  2487 ;;		Unchanged: 0/0
  2488 ;; Data sizes:     COMMON   BANK0   BANK1   BANK2   BANK3   BANK4
  2489 ;;      Params:         0       0       0       0       0       0
  2490 ;;      Locals:         0       0       0       0       0       0
  2491 ;;      Temps:          0       0       0       0       0       0
  2492 ;;      Totals:         0       0       0       0       0       0
  2493 ;;Total ram usage:        0 bytes
  2494 ;; Hardware stack levels used: 1
  2495 ;; This function calls:
  2496 ;;		Nothing
  2497 ;; This function is called by:
  2498 ;;		_SYSTEM_Initialize
  2499 ;; This function uses a non-reentrant model
  2500 ;;
  2501                           
  2502                           
  2503                           ;psect for function _OSCILLATOR_Initialize
  2504  013C                     _OSCILLATOR_Initialize:
  2505  013C                     l1816:	
  2506                           ;incstack = 0
  2507                           ; Regs used in _OSCILLATOR_Initialize: [wreg+status,2]
  2508                           
  2509                           
  2510                           ;mcc.c: 64:     OSCCON = 0x70;
  2511  013C  3070               	movlw	112
  2512  013D  0021               	movlb	1	; select bank1
  2513  013E  0099               	movwf	25	;volatile
  2514  013F                     l1818:
  2515                           
  2516                           ;mcc.c: 66:     OSCTUNE = 0x00;
  2517  013F  0198               	clrf	24	;volatile
  2518  0140                     l1820:
  2519                           
  2520                           ;mcc.c: 68:     BORCON = 0x00;
  2521  0140  0022               	movlb	2	; select bank2
  2522  0141  0196               	clrf	22	;volatile
  2523  0142                     l196:	
  2524                           ;mcc.c: 71:     {;mcc.c: 72:     }
  2525                           
  2526                           
  2527                           ;mcc.c: 70:     while(PLLR == 0)
  2528  0142  0021               	movlb	1	; select bank1
  2529  0143  1F1A               	btfss	26,6	;volatile
  2530  0144  2946               	goto	u791
  2531  0145  2947               	goto	u790
  2532  0146                     u791:
  2533  0146  2942               	goto	l196
  2534  0147                     u790:
  2535  0147                     l199:
  2536  0147  0008               	return
  2537  0148                     __end_of_OSCILLATOR_Initialize:
  2538                           
  2539                           	psect	text8
  2540  01B2                     __ptext8:	
  2541 ;; *************** function _EUSART_Initialize *****************
  2542 ;; Defined at:
  2543 ;;		line 66 in file "eusart.c"
  2544 ;; Parameters:    Size  Location     Type
  2545 ;;		None
  2546 ;; Auto vars:     Size  Location     Type
  2547 ;;		None
  2548 ;; Return value:  Size  Location     Type
  2549 ;;                  1    wreg      void 
  2550 ;; Registers used:
  2551 ;;		wreg, status,2, status,0, pclath, cstack
  2552 ;; Tracked objects:
  2553 ;;		On entry : 0/0
  2554 ;;		On exit  : 0/0
  2555 ;;		Unchanged: 0/0
  2556 ;; Data sizes:     COMMON   BANK0   BANK1   BANK2   BANK3   BANK4
  2557 ;;      Params:         0       0       0       0       0       0
  2558 ;;      Locals:         0       0       0       0       0       0
  2559 ;;      Temps:          0       0       0       0       0       0
  2560 ;;      Totals:         0       0       0       0       0       0
  2561 ;;Total ram usage:        0 bytes
  2562 ;; Hardware stack levels used: 1
  2563 ;; Hardware stack levels required when called: 1
  2564 ;; This function calls:
  2565 ;;		_EUSART_SetErrorHandler
  2566 ;;		_EUSART_SetFramingErrorHandler
  2567 ;;		_EUSART_SetOverrunErrorHandler
  2568 ;; This function is called by:
  2569 ;;		_SYSTEM_Initialize
  2570 ;; This function uses a non-reentrant model
  2571 ;;
  2572                           
  2573                           
  2574                           ;psect for function _EUSART_Initialize
  2575  01B2                     _EUSART_Initialize:
  2576  01B2                     l1794:	
  2577                           ;incstack = 0
  2578                           ; Regs used in _EUSART_Initialize: [wreg+status,2+status,0+pclath+cstack]
  2579                           
  2580                           
  2581                           ;eusart.c: 71:     BAUDCON = 0x08;
  2582  01B2  3008               	movlw	8
  2583  01B3  0023               	movlb	3	; select bank3
  2584  01B4  009F               	movwf	31	;volatile
  2585                           
  2586                           ;eusart.c: 74:     RCSTA = 0x90;
  2587  01B5  3090               	movlw	144
  2588  01B6  009D               	movwf	29	;volatile
  2589                           
  2590                           ;eusart.c: 77:     TXSTA = 0x24;
  2591  01B7  3024               	movlw	36
  2592  01B8  009E               	movwf	30	;volatile
  2593                           
  2594                           ;eusart.c: 80:     SPBRGL = 0x40;
  2595  01B9  3040               	movlw	64
  2596  01BA  009B               	movwf	27	;volatile
  2597                           
  2598                           ;eusart.c: 83:     SPBRGH = 0x03;
  2599  01BB  3003               	movlw	3
  2600  01BC  009C               	movwf	28	;volatile
  2601  01BD                     l1796:
  2602                           
  2603                           ;eusart.c: 86:     EUSART_SetFramingErrorHandler(EUSART_DefaultFramingErrorHandler);
  2604  01BD  3000               	movlw	0
  2605  01BE  00F0               	movwf	EUSART_SetFramingErrorHandler@interruptHandler
  2606  01BF  3000               	movlw	0
  2607  01C0  00F1               	movwf	EUSART_SetFramingErrorHandler@interruptHandler+1
  2608  01C1  3181  210D  3181   	fcall	_EUSART_SetFramingErrorHandler
  2609  01C4                     l1798:
  2610                           
  2611                           ;eusart.c: 87:     EUSART_SetOverrunErrorHandler(EUSART_DefaultOverrunErrorHandler);
  2612  01C4  3000               	movlw	0
  2613  01C5  00F0               	movwf	EUSART_SetOverrunErrorHandler@interruptHandler
  2614  01C6  3000               	movlw	0
  2615  01C7  00F1               	movwf	EUSART_SetOverrunErrorHandler@interruptHandler+1
  2616  01C8  3181  2113  3181   	fcall	_EUSART_SetOverrunErrorHandler
  2617  01CB                     l1800:
  2618                           
  2619                           ;eusart.c: 88:     EUSART_SetErrorHandler(EUSART_DefaultErrorHandler);
  2620  01CB  3000               	movlw	0
  2621  01CC  00F0               	movwf	EUSART_SetErrorHandler@interruptHandler
  2622  01CD  3000               	movlw	0
  2623  01CE  00F1               	movwf	EUSART_SetErrorHandler@interruptHandler+1
  2624  01CF  3181  2107  3181   	fcall	_EUSART_SetErrorHandler
  2625  01D2                     l1802:
  2626                           
  2627                           ;eusart.c: 90:     eusartRxLastError.status = 0;
  2628  01D2  0020               	movlb	0	; select bank0
  2629  01D3  01EE               	clrf	_eusartRxLastError	;volatile
  2630  01D4                     l81:
  2631  01D4  0008               	return
  2632  01D5                     __end_of_EUSART_Initialize:
  2633                           
  2634                           	psect	text9
  2635  0113                     __ptext9:	
  2636 ;; *************** function _EUSART_SetOverrunErrorHandler *****************
  2637 ;; Defined at:
  2638 ;;		line 161 in file "eusart.c"
  2639 ;; Parameters:    Size  Location     Type
  2640 ;;  interruptHan    2    0[COMMON] PTR FTN()void 
  2641 ;;		 -> EUSART_DefaultOverrunErrorHandler(1), 
  2642 ;; Auto vars:     Size  Location     Type
  2643 ;;		None
  2644 ;; Return value:  Size  Location     Type
  2645 ;;                  1    wreg      void 
  2646 ;; Registers used:
  2647 ;;		wreg
  2648 ;; Tracked objects:
  2649 ;;		On entry : 0/0
  2650 ;;		On exit  : 0/0
  2651 ;;		Unchanged: 0/0
  2652 ;; Data sizes:     COMMON   BANK0   BANK1   BANK2   BANK3   BANK4
  2653 ;;      Params:         2       0       0       0       0       0
  2654 ;;      Locals:         0       0       0       0       0       0
  2655 ;;      Temps:          0       0       0       0       0       0
  2656 ;;      Totals:         2       0       0       0       0       0
  2657 ;;Total ram usage:        2 bytes
  2658 ;; Hardware stack levels used: 1
  2659 ;; This function calls:
  2660 ;;		Nothing
  2661 ;; This function is called by:
  2662 ;;		_EUSART_Initialize
  2663 ;; This function uses a non-reentrant model
  2664 ;;
  2665                           
  2666                           
  2667                           ;psect for function _EUSART_SetOverrunErrorHandler
  2668  0113                     _EUSART_SetOverrunErrorHandler:
  2669  0113                     l1770:	
  2670                           ;incstack = 0
  2671                           ; Regs used in _EUSART_SetOverrunErrorHandler: [wreg]
  2672                           
  2673                           
  2674                           ;eusart.c: 162:     EUSART_OverrunErrorHandler = interruptHandler;
  2675  0113  0871               	movf	EUSART_SetOverrunErrorHandler@interruptHandler+1,w
  2676  0114  0021               	movlb	1	; select bank1
  2677  0115  00A3               	movwf	(_EUSART_OverrunErrorHandler+1)^(0+128)
  2678  0116  0870               	movf	EUSART_SetOverrunErrorHandler@interruptHandler,w
  2679  0117  00A2               	movwf	_EUSART_OverrunErrorHandler^(0+128)
  2680  0118                     l123:
  2681  0118  0008               	return
  2682  0119                     __end_of_EUSART_SetOverrunErrorHandler:
  2683                           
  2684                           	psect	text10
  2685  010D                     __ptext10:	
  2686 ;; *************** function _EUSART_SetFramingErrorHandler *****************
  2687 ;; Defined at:
  2688 ;;		line 157 in file "eusart.c"
  2689 ;; Parameters:    Size  Location     Type
  2690 ;;  interruptHan    2    0[COMMON] PTR FTN()void 
  2691 ;;		 -> EUSART_DefaultFramingErrorHandler(1), 
  2692 ;; Auto vars:     Size  Location     Type
  2693 ;;		None
  2694 ;; Return value:  Size  Location     Type
  2695 ;;                  1    wreg      void 
  2696 ;; Registers used:
  2697 ;;		wreg
  2698 ;; Tracked objects:
  2699 ;;		On entry : 0/0
  2700 ;;		On exit  : 0/0
  2701 ;;		Unchanged: 0/0
  2702 ;; Data sizes:     COMMON   BANK0   BANK1   BANK2   BANK3   BANK4
  2703 ;;      Params:         2       0       0       0       0       0
  2704 ;;      Locals:         0       0       0       0       0       0
  2705 ;;      Temps:          0       0       0       0       0       0
  2706 ;;      Totals:         2       0       0       0       0       0
  2707 ;;Total ram usage:        2 bytes
  2708 ;; Hardware stack levels used: 1
  2709 ;; This function calls:
  2710 ;;		Nothing
  2711 ;; This function is called by:
  2712 ;;		_EUSART_Initialize
  2713 ;; This function uses a non-reentrant model
  2714 ;;
  2715                           
  2716                           
  2717                           ;psect for function _EUSART_SetFramingErrorHandler
  2718  010D                     _EUSART_SetFramingErrorHandler:
  2719  010D                     l1768:	
  2720                           ;incstack = 0
  2721                           ; Regs used in _EUSART_SetFramingErrorHandler: [wreg]
  2722                           
  2723                           
  2724                           ;eusart.c: 158:     EUSART_FramingErrorHandler = interruptHandler;
  2725  010D  0871               	movf	EUSART_SetFramingErrorHandler@interruptHandler+1,w
  2726  010E  0021               	movlb	1	; select bank1
  2727  010F  00A5               	movwf	(_EUSART_FramingErrorHandler+1)^(0+128)
  2728  0110  0870               	movf	EUSART_SetFramingErrorHandler@interruptHandler,w
  2729  0111  00A4               	movwf	_EUSART_FramingErrorHandler^(0+128)
  2730  0112                     l120:
  2731  0112  0008               	return
  2732  0113                     __end_of_EUSART_SetFramingErrorHandler:
  2733                           
  2734                           	psect	text11
  2735  0107                     __ptext11:	
  2736 ;; *************** function _EUSART_SetErrorHandler *****************
  2737 ;; Defined at:
  2738 ;;		line 165 in file "eusart.c"
  2739 ;; Parameters:    Size  Location     Type
  2740 ;;  interruptHan    2    0[COMMON] PTR FTN()void 
  2741 ;;		 -> EUSART_DefaultErrorHandler(1), 
  2742 ;; Auto vars:     Size  Location     Type
  2743 ;;		None
  2744 ;; Return value:  Size  Location     Type
  2745 ;;                  1    wreg      void 
  2746 ;; Registers used:
  2747 ;;		wreg
  2748 ;; Tracked objects:
  2749 ;;		On entry : 0/0
  2750 ;;		On exit  : 0/0
  2751 ;;		Unchanged: 0/0
  2752 ;; Data sizes:     COMMON   BANK0   BANK1   BANK2   BANK3   BANK4
  2753 ;;      Params:         2       0       0       0       0       0
  2754 ;;      Locals:         0       0       0       0       0       0
  2755 ;;      Temps:          0       0       0       0       0       0
  2756 ;;      Totals:         2       0       0       0       0       0
  2757 ;;Total ram usage:        2 bytes
  2758 ;; Hardware stack levels used: 1
  2759 ;; This function calls:
  2760 ;;		Nothing
  2761 ;; This function is called by:
  2762 ;;		_EUSART_Initialize
  2763 ;; This function uses a non-reentrant model
  2764 ;;
  2765                           
  2766                           
  2767                           ;psect for function _EUSART_SetErrorHandler
  2768  0107                     _EUSART_SetErrorHandler:
  2769  0107                     l1772:	
  2770                           ;incstack = 0
  2771                           ; Regs used in _EUSART_SetErrorHandler: [wreg]
  2772                           
  2773                           
  2774                           ;eusart.c: 166:     EUSART_ErrorHandler = interruptHandler;
  2775  0107  0871               	movf	EUSART_SetErrorHandler@interruptHandler+1,w
  2776  0108  0021               	movlb	1	; select bank1
  2777  0109  00A1               	movwf	(_EUSART_ErrorHandler+1)^(0+128)
  2778  010A  0870               	movf	EUSART_SetErrorHandler@interruptHandler,w
  2779  010B  00A0               	movwf	_EUSART_ErrorHandler^(0+128)
  2780  010C                     l126:
  2781  010C  0008               	return
  2782  010D                     __end_of_EUSART_SetErrorHandler:
  2783                           
  2784                           	psect	text12
  2785  0120                     __ptext12:	
  2786 ;; *************** function _ADC_Initialize *****************
  2787 ;; Defined at:
  2788 ;;		line 67 in file "adc.c"
  2789 ;; Parameters:    Size  Location     Type
  2790 ;;		None
  2791 ;; Auto vars:     Size  Location     Type
  2792 ;;		None
  2793 ;; Return value:  Size  Location     Type
  2794 ;;                  1    wreg      void 
  2795 ;; Registers used:
  2796 ;;		wreg, status,2
  2797 ;; Tracked objects:
  2798 ;;		On entry : 0/0
  2799 ;;		On exit  : 0/0
  2800 ;;		Unchanged: 0/0
  2801 ;; Data sizes:     COMMON   BANK0   BANK1   BANK2   BANK3   BANK4
  2802 ;;      Params:         0       0       0       0       0       0
  2803 ;;      Locals:         0       0       0       0       0       0
  2804 ;;      Temps:          0       0       0       0       0       0
  2805 ;;      Totals:         0       0       0       0       0       0
  2806 ;;Total ram usage:        0 bytes
  2807 ;; Hardware stack levels used: 1
  2808 ;; This function calls:
  2809 ;;		Nothing
  2810 ;; This function is called by:
  2811 ;;		_main
  2812 ;;		_SYSTEM_Initialize
  2813 ;; This function uses a non-reentrant model
  2814 ;;
  2815                           
  2816                           
  2817                           ;psect for function _ADC_Initialize
  2818  0120                     _ADC_Initialize:
  2819  0120                     l1788:	
  2820                           ;incstack = 0
  2821                           ; Regs used in _ADC_Initialize: [wreg+status,2]
  2822                           
  2823                           
  2824                           ;adc.c: 72:     ADCON1 = 0x60;
  2825  0120  3060               	movlw	96
  2826  0121  0021               	movlb	1	; select bank1
  2827  0122  009E               	movwf	30	;volatile
  2828  0123                     l1790:
  2829                           
  2830                           ;adc.c: 75:     ADRESL = 0x00;
  2831  0123  019B               	clrf	27	;volatile
  2832  0124                     l1792:
  2833                           
  2834                           ;adc.c: 78:     ADRESH = 0x00;
  2835  0124  019C               	clrf	28	;volatile
  2836                           
  2837                           ;adc.c: 81:     ADCON0 = 0x01;
  2838  0125  3001               	movlw	1
  2839  0126  009D               	movwf	29	;volatile
  2840  0127                     l17:
  2841  0127  0008               	return
  2842  0128                     __end_of_ADC_Initialize:
  2843                           
  2844                           	psect	text13
  2845  0128                     __ptext13:	
  2846 ;; *************** function _EUSART_Write *****************
  2847 ;; Defined at:
  2848 ;;		line 132 in file "eusart.c"
  2849 ;; Parameters:    Size  Location     Type
  2850 ;;  txData          1    wreg     unsigned char 
  2851 ;; Auto vars:     Size  Location     Type
  2852 ;;  txData          1    0[COMMON] unsigned char 
  2853 ;; Return value:  Size  Location     Type
  2854 ;;                  1    wreg      void 
  2855 ;; Registers used:
  2856 ;;		wreg
  2857 ;; Tracked objects:
  2858 ;;		On entry : 0/0
  2859 ;;		On exit  : 0/0
  2860 ;;		Unchanged: 0/0
  2861 ;; Data sizes:     COMMON   BANK0   BANK1   BANK2   BANK3   BANK4
  2862 ;;      Params:         0       0       0       0       0       0
  2863 ;;      Locals:         1       0       0       0       0       0
  2864 ;;      Temps:          0       0       0       0       0       0
  2865 ;;      Totals:         1       0       0       0       0       0
  2866 ;;Total ram usage:        1 bytes
  2867 ;; Hardware stack levels used: 1
  2868 ;; This function calls:
  2869 ;;		Nothing
  2870 ;; This function is called by:
  2871 ;;		_main
  2872 ;; This function uses a non-reentrant model
  2873 ;;
  2874                           
  2875                           
  2876                           ;psect for function _EUSART_Write
  2877  0128                     _EUSART_Write:
  2878                           
  2879                           ;incstack = 0
  2880                           ; Regs used in _EUSART_Write: [wreg]
  2881                           ;EUSART_Write@txData stored from wreg
  2882  0128  00F0               	movwf	EUSART_Write@txData
  2883  0129                     l2110:
  2884  0129                     l105:	
  2885                           ;eusart.c: 135:     {;eusart.c: 136:     }
  2886                           
  2887                           
  2888                           ;eusart.c: 134:     while(0 == PIR1bits.TXIF)
  2889  0129  0020               	movlb	0	; select bank0
  2890  012A  1E11               	btfss	17,4	;volatile
  2891  012B  292D               	goto	u1431
  2892  012C  292E               	goto	u1430
  2893  012D                     u1431:
  2894  012D  2929               	goto	l105
  2895  012E                     u1430:
  2896  012E                     l2112:
  2897                           
  2898                           ;eusart.c: 138:     TXREG = txData;
  2899  012E  0870               	movf	EUSART_Write@txData,w
  2900  012F  0023               	movlb	3	; select bank3
  2901  0130  009A               	movwf	26	;volatile
  2902  0131                     l108:
  2903  0131  0008               	return
  2904  0132                     __end_of_EUSART_Write:
  2905                           
  2906                           	psect	text14
  2907  02ED                     __ptext14:	
  2908 ;; *************** function _Ds_Separar_Digito *****************
  2909 ;; Defined at:
  2910 ;;		line 174 in file "displays.c"
  2911 ;; Parameters:    Size  Location     Type
  2912 ;;  dsp             1    wreg     PTR struct Ds_Display
  2913 ;;		 -> main@My_Display(8), 
  2914 ;;  Recibido        2    8[COMMON] unsigned short 
  2915 ;; Auto vars:     Size  Location     Type
  2916 ;;  dsp             1   11[COMMON] PTR struct Ds_Display
  2917 ;;		 -> main@My_Display(8), 
  2918 ;; Return value:  Size  Location     Type
  2919 ;;                  1    wreg      void 
  2920 ;; Registers used:
  2921 ;;		wreg, fsr1l, fsr1h, status,2, status,0, pclath, cstack
  2922 ;; Tracked objects:
  2923 ;;		On entry : 0/0
  2924 ;;		On exit  : 0/0
  2925 ;;		Unchanged: 0/0
  2926 ;; Data sizes:     COMMON   BANK0   BANK1   BANK2   BANK3   BANK4
  2927 ;;      Params:         2       0       0       0       0       0
  2928 ;;      Locals:         1       0       0       0       0       0
  2929 ;;      Temps:          1       0       0       0       0       0
  2930 ;;      Totals:         4       0       0       0       0       0
  2931 ;;Total ram usage:        4 bytes
  2932 ;; Hardware stack levels used: 1
  2933 ;; Hardware stack levels required when called: 1
  2934 ;; This function calls:
  2935 ;;		___lwdiv
  2936 ;;		___lwmod
  2937 ;; This function is called by:
  2938 ;;		_main
  2939 ;; This function uses a non-reentrant model
  2940 ;;
  2941                           
  2942                           
  2943                           ;psect for function _Ds_Separar_Digito
  2944  02ED                     _Ds_Separar_Digito:
  2945                           
  2946                           ;incstack = 0
  2947                           ; Regs used in _Ds_Separar_Digito: [wreg+fsr1l+fsr1h+status,2+status,0+pclath+cstack]
  2948                           ;Ds_Separar_Digito@dsp stored from wreg
  2949  02ED  00FB               	movwf	Ds_Separar_Digito@dsp
  2950  02EE                     l2142:
  2951                           
  2952                           ;displays.c: 175:  dsp->D1 = Recibido % 10;
  2953  02EE  300A               	movlw	10
  2954  02EF  00F0               	movwf	___lwmod@divisor
  2955  02F0  3000               	movlw	0
  2956  02F1  00F1               	movwf	___lwmod@divisor+1
  2957  02F2  0879               	movf	Ds_Separar_Digito@Recibido+1,w
  2958  02F3  00F3               	movwf	___lwmod@dividend+1
  2959  02F4  0878               	movf	Ds_Separar_Digito@Recibido,w
  2960  02F5  00F2               	movwf	___lwmod@dividend
  2961  02F6  3182  2202  3182   	fcall	___lwmod
  2962  02F9  0870               	movf	?___lwmod,w
  2963  02FA  00FA               	movwf	??_Ds_Separar_Digito
  2964  02FB  0A7B               	incf	Ds_Separar_Digito@dsp,w
  2965  02FC  0086               	movwf	6
  2966  02FD  0187               	clrf	7
  2967  02FE  087A               	movf	??_Ds_Separar_Digito,w
  2968  02FF  0081               	movwf	1
  2969  0300                     l2144:
  2970                           
  2971                           ;displays.c: 176:  Recibido = Recibido/10;
  2972  0300  300A               	movlw	10
  2973  0301  00F0               	movwf	___lwdiv@divisor
  2974  0302  3000               	movlw	0
  2975  0303  00F1               	movwf	___lwdiv@divisor+1
  2976  0304  0879               	movf	Ds_Separar_Digito@Recibido+1,w
  2977  0305  00F3               	movwf	___lwdiv@dividend+1
  2978  0306  0878               	movf	Ds_Separar_Digito@Recibido,w
  2979  0307  00F2               	movwf	___lwdiv@dividend
  2980  0308  3182  2236  3182   	fcall	___lwdiv
  2981  030B  0871               	movf	?___lwdiv+1,w
  2982  030C  00F9               	movwf	Ds_Separar_Digito@Recibido+1
  2983  030D  0870               	movf	?___lwdiv,w
  2984  030E  00F8               	movwf	Ds_Separar_Digito@Recibido
  2985  030F                     l2146:
  2986                           
  2987                           ;displays.c: 177:  dsp->D2 = Recibido % 10;
  2988  030F  300A               	movlw	10
  2989  0310  00F0               	movwf	___lwmod@divisor
  2990  0311  3000               	movlw	0
  2991  0312  00F1               	movwf	___lwmod@divisor+1
  2992  0313  0879               	movf	Ds_Separar_Digito@Recibido+1,w
  2993  0314  00F3               	movwf	___lwmod@dividend+1
  2994  0315  0878               	movf	Ds_Separar_Digito@Recibido,w
  2995  0316  00F2               	movwf	___lwmod@dividend
  2996  0317  3182  2202  3182   	fcall	___lwmod
  2997  031A  0870               	movf	?___lwmod,w
  2998  031B  00FA               	movwf	??_Ds_Separar_Digito
  2999  031C  087B               	movf	Ds_Separar_Digito@dsp,w
  3000  031D  3E02               	addlw	2
  3001  031E  0086               	movwf	6
  3002  031F  0187               	clrf	7
  3003  0320  087A               	movf	??_Ds_Separar_Digito,w
  3004  0321  0081               	movwf	1
  3005                           
  3006                           ;displays.c: 178:  Recibido = Recibido/10;
  3007  0322  300A               	movlw	10
  3008  0323  00F0               	movwf	___lwdiv@divisor
  3009  0324  3000               	movlw	0
  3010  0325  00F1               	movwf	___lwdiv@divisor+1
  3011  0326  0879               	movf	Ds_Separar_Digito@Recibido+1,w
  3012  0327  00F3               	movwf	___lwdiv@dividend+1
  3013  0328  0878               	movf	Ds_Separar_Digito@Recibido,w
  3014  0329  00F2               	movwf	___lwdiv@dividend
  3015  032A  3182  2236  3182   	fcall	___lwdiv
  3016  032D  0871               	movf	?___lwdiv+1,w
  3017  032E  00F9               	movwf	Ds_Separar_Digito@Recibido+1
  3018  032F  0870               	movf	?___lwdiv,w
  3019  0330  00F8               	movwf	Ds_Separar_Digito@Recibido
  3020  0331                     l2148:
  3021                           
  3022                           ;displays.c: 179:  dsp->D3 = Recibido % 10;
  3023  0331  300A               	movlw	10
  3024  0332  00F0               	movwf	___lwmod@divisor
  3025  0333  3000               	movlw	0
  3026  0334  00F1               	movwf	___lwmod@divisor+1
  3027  0335  0879               	movf	Ds_Separar_Digito@Recibido+1,w
  3028  0336  00F3               	movwf	___lwmod@dividend+1
  3029  0337  0878               	movf	Ds_Separar_Digito@Recibido,w
  3030  0338  00F2               	movwf	___lwmod@dividend
  3031  0339  3182  2202  3182   	fcall	___lwmod
  3032  033C  0870               	movf	?___lwmod,w
  3033  033D  00FA               	movwf	??_Ds_Separar_Digito
  3034  033E  087B               	movf	Ds_Separar_Digito@dsp,w
  3035  033F  3E03               	addlw	3
  3036  0340  0086               	movwf	6
  3037  0341  0187               	clrf	7
  3038  0342  087A               	movf	??_Ds_Separar_Digito,w
  3039  0343  0081               	movwf	1
  3040  0344                     l504:
  3041  0344  0008               	return
  3042  0345                     __end_of_Ds_Separar_Digito:
  3043                           
  3044                           	psect	text15
  3045  0202                     __ptext15:	
  3046 ;; *************** function ___lwmod *****************
  3047 ;; Defined at:
  3048 ;;		line 5 in file "C:\Program Files\Microchip\xc8\v2.32\pic\sources\c99\common\lwmod.c"
  3049 ;; Parameters:    Size  Location     Type
  3050 ;;  divisor         2    0[COMMON] unsigned int 
  3051 ;;  dividend        2    2[COMMON] unsigned int 
  3052 ;; Auto vars:     Size  Location     Type
  3053 ;;  counter         1    5[COMMON] unsigned char 
  3054 ;; Return value:  Size  Location     Type
  3055 ;;                  2    0[COMMON] unsigned int 
  3056 ;; Registers used:
  3057 ;;		wreg, status,2, status,0
  3058 ;; Tracked objects:
  3059 ;;		On entry : 0/0
  3060 ;;		On exit  : 0/0
  3061 ;;		Unchanged: 0/0
  3062 ;; Data sizes:     COMMON   BANK0   BANK1   BANK2   BANK3   BANK4
  3063 ;;      Params:         4       0       0       0       0       0
  3064 ;;      Locals:         1       0       0       0       0       0
  3065 ;;      Temps:          1       0       0       0       0       0
  3066 ;;      Totals:         6       0       0       0       0       0
  3067 ;;Total ram usage:        6 bytes
  3068 ;; Hardware stack levels used: 1
  3069 ;; This function calls:
  3070 ;;		Nothing
  3071 ;; This function is called by:
  3072 ;;		_Ds_Separar_Digito
  3073 ;; This function uses a non-reentrant model
  3074 ;;
  3075                           
  3076                           
  3077                           ;psect for function ___lwmod
  3078  0202                     ___lwmod:
  3079  0202                     l1894:	
  3080                           ;incstack = 0
  3081                           ; Regs used in ___lwmod: [wreg+status,2+status,0]
  3082                           
  3083  0202  0870               	movf	___lwmod@divisor,w
  3084  0203  0471               	iorwf	___lwmod@divisor+1,w
  3085  0204  1903               	btfsc	3,2
  3086  0205  2A07               	goto	u971
  3087  0206  2A08               	goto	u970
  3088  0207                     u971:
  3089  0207  2A31               	goto	l1912
  3090  0208                     u970:
  3091  0208                     l1896:
  3092  0208  01F5               	clrf	___lwmod@counter
  3093  0209  0AF5               	incf	___lwmod@counter,f
  3094  020A  2A14               	goto	l1902
  3095  020B                     l1898:
  3096  020B  3001               	movlw	1
  3097  020C                     u985:
  3098  020C  35F0               	lslf	___lwmod@divisor,f
  3099  020D  0DF1               	rlf	___lwmod@divisor+1,f
  3100  020E  0B89               	decfsz	9,f
  3101  020F  2A0C               	goto	u985
  3102  0210                     l1900:
  3103  0210  3001               	movlw	1
  3104  0211  00F4               	movwf	??___lwmod
  3105  0212  0874               	movf	??___lwmod,w
  3106  0213  07F5               	addwf	___lwmod@counter,f
  3107  0214                     l1902:
  3108  0214  1FF1               	btfss	___lwmod@divisor+1,7
  3109  0215  2A17               	goto	u991
  3110  0216  2A18               	goto	u990
  3111  0217                     u991:
  3112  0217  2A0B               	goto	l1898
  3113  0218                     u990:
  3114  0218                     l1904:
  3115  0218  0871               	movf	___lwmod@divisor+1,w
  3116  0219  0273               	subwf	___lwmod@dividend+1,w
  3117  021A  1D03               	skipz
  3118  021B  2A1E               	goto	u1005
  3119  021C  0870               	movf	___lwmod@divisor,w
  3120  021D  0272               	subwf	___lwmod@dividend,w
  3121  021E                     u1005:
  3122  021E  1C03               	skipc
  3123  021F  2A21               	goto	u1001
  3124  0220  2A22               	goto	u1000
  3125  0221                     u1001:
  3126  0221  2A26               	goto	l1908
  3127  0222                     u1000:
  3128  0222                     l1906:
  3129  0222  0870               	movf	___lwmod@divisor,w
  3130  0223  02F2               	subwf	___lwmod@dividend,f
  3131  0224  0871               	movf	___lwmod@divisor+1,w
  3132  0225  3BF3               	subwfb	___lwmod@dividend+1,f
  3133  0226                     l1908:
  3134  0226  3001               	movlw	1
  3135  0227                     u1015:
  3136  0227  36F1               	lsrf	___lwmod@divisor+1,f
  3137  0228  0CF0               	rrf	___lwmod@divisor,f
  3138  0229  0B89               	decfsz	9,f
  3139  022A  2A27               	goto	u1015
  3140  022B                     l1910:
  3141  022B  3001               	movlw	1
  3142  022C  02F5               	subwf	___lwmod@counter,f
  3143  022D  1D03               	btfss	3,2
  3144  022E  2A30               	goto	u1021
  3145  022F  2A31               	goto	u1020
  3146  0230                     u1021:
  3147  0230  2A18               	goto	l1904
  3148  0231                     u1020:
  3149  0231                     l1912:
  3150  0231  0873               	movf	___lwmod@dividend+1,w
  3151  0232  00F1               	movwf	?___lwmod+1
  3152  0233  0872               	movf	___lwmod@dividend,w
  3153  0234  00F0               	movwf	?___lwmod
  3154  0235                     l968:
  3155  0235  0008               	return
  3156  0236                     __end_of___lwmod:
  3157                           
  3158                           	psect	text16
  3159  0236                     __ptext16:	
  3160 ;; *************** function ___lwdiv *****************
  3161 ;; Defined at:
  3162 ;;		line 5 in file "C:\Program Files\Microchip\xc8\v2.32\pic\sources\c99\common\lwdiv.c"
  3163 ;; Parameters:    Size  Location     Type
  3164 ;;  divisor         2    0[COMMON] unsigned int 
  3165 ;;  dividend        2    2[COMMON] unsigned int 
  3166 ;; Auto vars:     Size  Location     Type
  3167 ;;  quotient        2    5[COMMON] unsigned int 
  3168 ;;  counter         1    7[COMMON] unsigned char 
  3169 ;; Return value:  Size  Location     Type
  3170 ;;                  2    0[COMMON] unsigned int 
  3171 ;; Registers used:
  3172 ;;		wreg, status,2, status,0
  3173 ;; Tracked objects:
  3174 ;;		On entry : 0/0
  3175 ;;		On exit  : 0/0
  3176 ;;		Unchanged: 0/0
  3177 ;; Data sizes:     COMMON   BANK0   BANK1   BANK2   BANK3   BANK4
  3178 ;;      Params:         4       0       0       0       0       0
  3179 ;;      Locals:         3       0       0       0       0       0
  3180 ;;      Temps:          1       0       0       0       0       0
  3181 ;;      Totals:         8       0       0       0       0       0
  3182 ;;Total ram usage:        8 bytes
  3183 ;; Hardware stack levels used: 1
  3184 ;; This function calls:
  3185 ;;		Nothing
  3186 ;; This function is called by:
  3187 ;;		_Ds_Separar_Digito
  3188 ;; This function uses a non-reentrant model
  3189 ;;
  3190                           
  3191                           
  3192                           ;psect for function ___lwdiv
  3193  0236                     ___lwdiv:
  3194  0236                     l1868:	
  3195                           ;incstack = 0
  3196                           ; Regs used in ___lwdiv: [wreg+status,2+status,0]
  3197                           
  3198  0236  01F5               	clrf	___lwdiv@quotient
  3199  0237  01F6               	clrf	___lwdiv@quotient+1
  3200  0238                     l1870:
  3201  0238  0870               	movf	___lwdiv@divisor,w
  3202  0239  0471               	iorwf	___lwdiv@divisor+1,w
  3203  023A  1903               	btfsc	3,2
  3204  023B  2A3D               	goto	u901
  3205  023C  2A3E               	goto	u900
  3206  023D                     u901:
  3207  023D  2A6D               	goto	l1890
  3208  023E                     u900:
  3209  023E                     l1872:
  3210  023E  01F7               	clrf	___lwdiv@counter
  3211  023F  0AF7               	incf	___lwdiv@counter,f
  3212  0240  2A4A               	goto	l1878
  3213  0241                     l1874:
  3214  0241  3001               	movlw	1
  3215  0242                     u915:
  3216  0242  35F0               	lslf	___lwdiv@divisor,f
  3217  0243  0DF1               	rlf	___lwdiv@divisor+1,f
  3218  0244  0B89               	decfsz	9,f
  3219  0245  2A42               	goto	u915
  3220  0246                     l1876:
  3221  0246  3001               	movlw	1
  3222  0247  00F4               	movwf	??___lwdiv
  3223  0248  0874               	movf	??___lwdiv,w
  3224  0249  07F7               	addwf	___lwdiv@counter,f
  3225  024A                     l1878:
  3226  024A  1FF1               	btfss	___lwdiv@divisor+1,7
  3227  024B  2A4D               	goto	u921
  3228  024C  2A4E               	goto	u920
  3229  024D                     u921:
  3230  024D  2A41               	goto	l1874
  3231  024E                     u920:
  3232  024E                     l1880:
  3233  024E  3001               	movlw	1
  3234  024F                     u935:
  3235  024F  35F5               	lslf	___lwdiv@quotient,f
  3236  0250  0DF6               	rlf	___lwdiv@quotient+1,f
  3237  0251  0B89               	decfsz	9,f
  3238  0252  2A4F               	goto	u935
  3239  0253  0871               	movf	___lwdiv@divisor+1,w
  3240  0254  0273               	subwf	___lwdiv@dividend+1,w
  3241  0255  1D03               	skipz
  3242  0256  2A59               	goto	u945
  3243  0257  0870               	movf	___lwdiv@divisor,w
  3244  0258  0272               	subwf	___lwdiv@dividend,w
  3245  0259                     u945:
  3246  0259  1C03               	skipc
  3247  025A  2A5C               	goto	u941
  3248  025B  2A5D               	goto	u940
  3249  025C                     u941:
  3250  025C  2A62               	goto	l1886
  3251  025D                     u940:
  3252  025D                     l1882:
  3253  025D  0870               	movf	___lwdiv@divisor,w
  3254  025E  02F2               	subwf	___lwdiv@dividend,f
  3255  025F  0871               	movf	___lwdiv@divisor+1,w
  3256  0260  3BF3               	subwfb	___lwdiv@dividend+1,f
  3257  0261                     l1884:
  3258  0261  1475               	bsf	___lwdiv@quotient,0
  3259  0262                     l1886:
  3260  0262  3001               	movlw	1
  3261  0263                     u955:
  3262  0263  36F1               	lsrf	___lwdiv@divisor+1,f
  3263  0264  0CF0               	rrf	___lwdiv@divisor,f
  3264  0265  0B89               	decfsz	9,f
  3265  0266  2A63               	goto	u955
  3266  0267                     l1888:
  3267  0267  3001               	movlw	1
  3268  0268  02F7               	subwf	___lwdiv@counter,f
  3269  0269  1D03               	btfss	3,2
  3270  026A  2A6C               	goto	u961
  3271  026B  2A6D               	goto	u960
  3272  026C                     u961:
  3273  026C  2A4E               	goto	l1880
  3274  026D                     u960:
  3275  026D                     l1890:
  3276  026D  0876               	movf	___lwdiv@quotient+1,w
  3277  026E  00F1               	movwf	?___lwdiv+1
  3278  026F  0875               	movf	___lwdiv@quotient,w
  3279  0270  00F0               	movwf	?___lwdiv
  3280  0271                     l958:
  3281  0271  0008               	return
  3282  0272                     __end_of___lwdiv:
  3283                           
  3284                           	psect	text17
  3285  0272                     __ptext17:	
  3286 ;; *************** function _Ds_Regla_de_3 *****************
  3287 ;; Defined at:
  3288 ;;		line 182 in file "displays.c"
  3289 ;; Parameters:    Size  Location     Type
  3290 ;;  Leido           2   37[BANK0 ] unsigned short 
  3291 ;; Auto vars:     Size  Location     Type
  3292 ;;  salidaa         4   39[BANK0 ] float 
  3293 ;;  salida          2   43[BANK0 ] unsigned short 
  3294 ;; Return value:  Size  Location     Type
  3295 ;;                  2   37[BANK0 ] unsigned short 
  3296 ;; Registers used:
  3297 ;;		wreg, status,2, status,0, pclath, cstack
  3298 ;; Tracked objects:
  3299 ;;		On entry : 0/0
  3300 ;;		On exit  : 0/0
  3301 ;;		Unchanged: 0/0
  3302 ;; Data sizes:     COMMON   BANK0   BANK1   BANK2   BANK3   BANK4
  3303 ;;      Params:         0       2       0       0       0       0
  3304 ;;      Locals:         0       6       0       0       0       0
  3305 ;;      Temps:          0       0       0       0       0       0
  3306 ;;      Totals:         0       8       0       0       0       0
  3307 ;;Total ram usage:        8 bytes
  3308 ;; Hardware stack levels used: 1
  3309 ;; Hardware stack levels required when called: 2
  3310 ;; This function calls:
  3311 ;;		___flmul
  3312 ;;		___fltol
  3313 ;;		___xxtofl
  3314 ;; This function is called by:
  3315 ;;		_main
  3316 ;; This function uses a non-reentrant model
  3317 ;;
  3318                           
  3319                           
  3320                           ;psect for function _Ds_Regla_de_3
  3321  0272                     _Ds_Regla_de_3:
  3322  0272                     l2134:	
  3323                           ;incstack = 0
  3324                           ; Regs used in _Ds_Regla_de_3: [wreg+status,2+status,0+pclath+cstack]
  3325                           
  3326                           
  3327                           ;displays.c: 183:     float salidaa=0.97654;
  3328  0272  303F               	movlw	63
  3329  0273  0020               	movlb	0	; select bank0
  3330  0274  00CA               	movwf	Ds_Regla_de_3@salidaa+3
  3331  0275  3079               	movlw	121
  3332  0276  00C9               	movwf	Ds_Regla_de_3@salidaa+2
  3333  0277  30FE               	movlw	254
  3334  0278  00C8               	movwf	Ds_Regla_de_3@salidaa+1
  3335  0279  3087               	movlw	135
  3336  027A  00C7               	movwf	Ds_Regla_de_3@salidaa
  3337  027B                     l2136:
  3338                           
  3339                           ;displays.c: 184:     uint16_t salida = (uint16_t)(((float)Leido)*salidaa);
  3340  027B  0845               	movf	Ds_Regla_de_3@Leido,w
  3341  027C  00F0               	movwf	___xxtofl@val
  3342  027D  0846               	movf	Ds_Regla_de_3@Leido+1,w
  3343  027E  00F1               	movwf	___xxtofl@val+1
  3344  027F  01F2               	clrf	___xxtofl@val+2
  3345  0280  01F3               	clrf	___xxtofl@val+3
  3346  0281  3000               	movlw	0
  3347  0282  3184  24EF  3182   	fcall	___xxtofl
  3348  0285  0873               	movf	?___xxtofl+3,w
  3349  0286  0020               	movlb	0	; select bank0
  3350  0287  00A7               	movwf	___flmul@a+3
  3351  0288  0872               	movf	?___xxtofl+2,w
  3352  0289  00A6               	movwf	___flmul@a+2
  3353  028A  0871               	movf	?___xxtofl+1,w
  3354  028B  00A5               	movwf	___flmul@a+1
  3355  028C  0870               	movf	?___xxtofl,w
  3356  028D  00A4               	movwf	___flmul@a
  3357  028E  084A               	movf	Ds_Regla_de_3@salidaa+3,w
  3358  028F  00A3               	movwf	___flmul@b+3
  3359  0290  0849               	movf	Ds_Regla_de_3@salidaa+2,w
  3360  0291  00A2               	movwf	___flmul@b+2
  3361  0292  0848               	movf	Ds_Regla_de_3@salidaa+1,w
  3362  0293  00A1               	movwf	___flmul@b+1
  3363  0294  0847               	movf	Ds_Regla_de_3@salidaa,w
  3364  0295  00A0               	movwf	___flmul@b
  3365  0296  3185  259B  3182   	fcall	___flmul
  3366  0299  0020               	movlb	0	; select bank0
  3367  029A  0823               	movf	?___flmul+3,w
  3368  029B  00BD               	movwf	___fltol@f1+3
  3369  029C  0822               	movf	?___flmul+2,w
  3370  029D  00BC               	movwf	___fltol@f1+2
  3371  029E  0821               	movf	?___flmul+1,w
  3372  029F  00BB               	movwf	___fltol@f1+1
  3373  02A0  0820               	movf	?___flmul,w
  3374  02A1  00BA               	movwf	___fltol@f1
  3375  02A2  3183  2345  3182   	fcall	___fltol
  3376  02A5  0020               	movlb	0	; select bank0
  3377  02A6  083B               	movf	?___fltol+1,w
  3378  02A7  00CC               	movwf	Ds_Regla_de_3@salida+1
  3379  02A8  083A               	movf	?___fltol,w
  3380  02A9  00CB               	movwf	Ds_Regla_de_3@salida
  3381  02AA                     l2138:
  3382                           
  3383                           ;displays.c: 185:  return(salida);
  3384  02AA  084C               	movf	Ds_Regla_de_3@salida+1,w
  3385  02AB  00C6               	movwf	?_Ds_Regla_de_3+1
  3386  02AC  084B               	movf	Ds_Regla_de_3@salida,w
  3387  02AD  00C5               	movwf	?_Ds_Regla_de_3
  3388  02AE                     l507:
  3389  02AE  0008               	return
  3390  02AF                     __end_of_Ds_Regla_de_3:
  3391                           
  3392                           	psect	text18
  3393  04EF                     __ptext18:	
  3394 ;; *************** function ___xxtofl *****************
  3395 ;; Defined at:
  3396 ;;		line 10 in file "C:\Program Files\Microchip\xc8\v2.32\pic\sources\c99\common\xxtofl.c"
  3397 ;; Parameters:    Size  Location     Type
  3398 ;;  sign            1    wreg     unsigned char 
  3399 ;;  val             4    0[COMMON] long 
  3400 ;; Auto vars:     Size  Location     Type
  3401 ;;  sign            1    8[COMMON] unsigned char 
  3402 ;;  arg             4   10[COMMON] unsigned long 
  3403 ;;  exp             1    9[COMMON] unsigned char 
  3404 ;; Return value:  Size  Location     Type
  3405 ;;                  4    0[COMMON] unsigned char 
  3406 ;; Registers used:
  3407 ;;		wreg, status,2, status,0
  3408 ;; Tracked objects:
  3409 ;;		On entry : 0/0
  3410 ;;		On exit  : 0/0
  3411 ;;		Unchanged: 0/0
  3412 ;; Data sizes:     COMMON   BANK0   BANK1   BANK2   BANK3   BANK4
  3413 ;;      Params:         4       0       0       0       0       0
  3414 ;;      Locals:         6       0       0       0       0       0
  3415 ;;      Temps:          4       0       0       0       0       0
  3416 ;;      Totals:        14       0       0       0       0       0
  3417 ;;Total ram usage:       14 bytes
  3418 ;; Hardware stack levels used: 1
  3419 ;; This function calls:
  3420 ;;		Nothing
  3421 ;; This function is called by:
  3422 ;;		_Ds_Regla_de_3
  3423 ;; This function uses a non-reentrant model
  3424 ;;
  3425                           
  3426                           
  3427                           ;psect for function ___xxtofl
  3428  04EF                     ___xxtofl:
  3429                           
  3430                           ;incstack = 0
  3431                           ; Regs used in ___xxtofl: [wreg+status,2+status,0]
  3432                           ;___xxtofl@sign stored from wreg
  3433  04EF  00F8               	movwf	___xxtofl@sign
  3434  04F0                     l2056:
  3435  04F0  0878               	movf	___xxtofl@sign,w
  3436  04F1  1903               	btfsc	3,2
  3437  04F2  2CF4               	goto	u1291
  3438  04F3  2CF5               	goto	u1290
  3439  04F4                     u1291:
  3440  04F4  2D09               	goto	l2062
  3441  04F5                     u1290:
  3442  04F5                     l2058:
  3443  04F5  1FF3               	btfss	___xxtofl@val+3,7
  3444  04F6  2CF8               	goto	u1301
  3445  04F7  2CF9               	goto	u1300
  3446  04F8                     u1301:
  3447  04F8  2D09               	goto	l2062
  3448  04F9                     u1300:
  3449  04F9                     l2060:
  3450  04F9  0970               	comf	___xxtofl@val,w
  3451  04FA  00FA               	movwf	___xxtofl@arg
  3452  04FB  0971               	comf	___xxtofl@val+1,w
  3453  04FC  00FB               	movwf	___xxtofl@arg+1
  3454  04FD  0972               	comf	___xxtofl@val+2,w
  3455  04FE  00FC               	movwf	___xxtofl@arg+2
  3456  04FF  0973               	comf	___xxtofl@val+3,w
  3457  0500  00FD               	movwf	___xxtofl@arg+3
  3458  0501  0AFA               	incf	___xxtofl@arg,f
  3459  0502  1903               	skipnz
  3460  0503  0AFB               	incf	___xxtofl@arg+1,f
  3461  0504  1903               	skipnz
  3462  0505  0AFC               	incf	___xxtofl@arg+2,f
  3463  0506  1903               	skipnz
  3464  0507  0AFD               	incf	___xxtofl@arg+3,f
  3465  0508  2D11               	goto	l1119
  3466  0509                     l2062:
  3467  0509  0873               	movf	___xxtofl@val+3,w
  3468  050A  00FD               	movwf	___xxtofl@arg+3
  3469  050B  0872               	movf	___xxtofl@val+2,w
  3470  050C  00FC               	movwf	___xxtofl@arg+2
  3471  050D  0871               	movf	___xxtofl@val+1,w
  3472  050E  00FB               	movwf	___xxtofl@arg+1
  3473  050F  0870               	movf	___xxtofl@val,w
  3474  0510  00FA               	movwf	___xxtofl@arg
  3475  0511                     l1119:
  3476  0511  0873               	movf	___xxtofl@val+3,w
  3477  0512  0472               	iorwf	___xxtofl@val+2,w
  3478  0513  0471               	iorwf	___xxtofl@val+1,w
  3479  0514  0470               	iorwf	___xxtofl@val,w
  3480  0515  1D03               	skipz
  3481  0516  2D18               	goto	u1311
  3482  0517  2D19               	goto	u1310
  3483  0518                     u1311:
  3484  0518  2D22               	goto	l2068
  3485  0519                     u1310:
  3486  0519                     l2064:
  3487  0519  3000               	movlw	0
  3488  051A  00F3               	movwf	?___xxtofl+3
  3489  051B  3000               	movlw	0
  3490  051C  00F2               	movwf	?___xxtofl+2
  3491  051D  3000               	movlw	0
  3492  051E  00F1               	movwf	?___xxtofl+1
  3493  051F  3000               	movlw	0
  3494  0520  00F0               	movwf	?___xxtofl
  3495  0521  2D9A               	goto	l1121
  3496  0522                     l2068:
  3497  0522  3096               	movlw	150
  3498  0523  00F4               	movwf	??___xxtofl
  3499  0524  0874               	movf	??___xxtofl,w
  3500  0525  00F9               	movwf	___xxtofl@exp
  3501  0526  2D32               	goto	l2072
  3502  0527                     l2070:
  3503  0527  3001               	movlw	1
  3504  0528  00F4               	movwf	??___xxtofl
  3505  0529  0874               	movf	??___xxtofl,w
  3506  052A  07F9               	addwf	___xxtofl@exp,f
  3507  052B  3001               	movlw	1
  3508  052C                     u1325:
  3509  052C  36FD               	lsrf	___xxtofl@arg+3,f
  3510  052D  0CFC               	rrf	___xxtofl@arg+2,f
  3511  052E  0CFB               	rrf	___xxtofl@arg+1,f
  3512  052F  0CFA               	rrf	___xxtofl@arg,f
  3513  0530  0B89               	decfsz	9,f
  3514  0531  2D2C               	goto	u1325
  3515  0532                     l2072:
  3516  0532  30FE               	movlw	254
  3517  0533  057D               	andwf	___xxtofl@arg+3,w
  3518  0534  1D03               	btfss	3,2
  3519  0535  2D37               	goto	u1331
  3520  0536  2D38               	goto	u1330
  3521  0537                     u1331:
  3522  0537  2D27               	goto	l2070
  3523  0538                     u1330:
  3524  0538  2D4C               	goto	l1125
  3525  0539                     l2074:
  3526  0539  3001               	movlw	1
  3527  053A  00F4               	movwf	??___xxtofl
  3528  053B  0874               	movf	??___xxtofl,w
  3529  053C  07F9               	addwf	___xxtofl@exp,f
  3530  053D                     l2076:
  3531  053D  3001               	movlw	1
  3532  053E  07FA               	addwf	___xxtofl@arg,f
  3533  053F  3000               	movlw	0
  3534  0540  3DFB               	addwfc	___xxtofl@arg+1,f
  3535  0541  3000               	movlw	0
  3536  0542  3DFC               	addwfc	___xxtofl@arg+2,f
  3537  0543  3000               	movlw	0
  3538  0544  3DFD               	addwfc	___xxtofl@arg+3,f
  3539  0545                     l2078:
  3540  0545  3001               	movlw	1
  3541  0546                     u1345:
  3542  0546  36FD               	lsrf	___xxtofl@arg+3,f
  3543  0547  0CFC               	rrf	___xxtofl@arg+2,f
  3544  0548  0CFB               	rrf	___xxtofl@arg+1,f
  3545  0549  0CFA               	rrf	___xxtofl@arg,f
  3546  054A  0B89               	decfsz	9,f
  3547  054B  2D46               	goto	u1345
  3548  054C                     l1125:
  3549  054C  30FF               	movlw	255
  3550  054D  057D               	andwf	___xxtofl@arg+3,w
  3551  054E  1D03               	btfss	3,2
  3552  054F  2D51               	goto	u1351
  3553  0550  2D52               	goto	u1350
  3554  0551                     u1351:
  3555  0551  2D39               	goto	l2074
  3556  0552                     u1350:
  3557  0552  2D5C               	goto	l2082
  3558  0553                     l2080:
  3559  0553  3001               	movlw	1
  3560  0554  02F9               	subwf	___xxtofl@exp,f
  3561  0555  3001               	movlw	1
  3562  0556                     u1365:
  3563  0556  35FA               	lslf	___xxtofl@arg,f
  3564  0557  0DFB               	rlf	___xxtofl@arg+1,f
  3565  0558  0DFC               	rlf	___xxtofl@arg+2,f
  3566  0559  0DFD               	rlf	___xxtofl@arg+3,f
  3567  055A  0B89               	decfsz	9,f
  3568  055B  2D56               	goto	u1365
  3569  055C                     l2082:
  3570  055C  1BFC               	btfsc	___xxtofl@arg+2,7
  3571  055D  2D5F               	goto	u1371
  3572  055E  2D60               	goto	u1370
  3573  055F                     u1371:
  3574  055F  2D66               	goto	l1132
  3575  0560                     u1370:
  3576  0560                     l2084:
  3577  0560  3002               	movlw	2
  3578  0561  0279               	subwf	___xxtofl@exp,w
  3579  0562  1803               	skipnc
  3580  0563  2D65               	goto	u1381
  3581  0564  2D66               	goto	u1380
  3582  0565                     u1381:
  3583  0565  2D53               	goto	l2080
  3584  0566                     u1380:
  3585  0566                     l1132:
  3586  0566  1879               	btfsc	___xxtofl@exp,0
  3587  0567  2D69               	goto	u1391
  3588  0568  2D6A               	goto	u1390
  3589  0569                     u1391:
  3590  0569  2D72               	goto	l1133
  3591  056A                     u1390:
  3592  056A                     l2086:
  3593  056A  30FF               	movlw	255
  3594  056B  05FA               	andwf	___xxtofl@arg,f
  3595  056C  30FF               	movlw	255
  3596  056D  05FB               	andwf	___xxtofl@arg+1,f
  3597  056E  307F               	movlw	127
  3598  056F  05FC               	andwf	___xxtofl@arg+2,f
  3599  0570  30FF               	movlw	255
  3600  0571  05FD               	andwf	___xxtofl@arg+3,f
  3601  0572                     l1133:
  3602  0572  1003               	clrc
  3603  0573  0CF9               	rrf	___xxtofl@exp,f
  3604  0574                     l2088:
  3605  0574  0879               	movf	___xxtofl@exp,w
  3606  0575  00F4               	movwf	??___xxtofl
  3607  0576  01F5               	clrf	??___xxtofl+1
  3608  0577  01F6               	clrf	??___xxtofl+2
  3609  0578  01F7               	clrf	??___xxtofl+3
  3610  0579  3018               	movlw	24
  3611  057A                     u1405:
  3612  057A  35F4               	lslf	??___xxtofl,f
  3613  057B  0DF5               	rlf	??___xxtofl+1,f
  3614  057C  0DF6               	rlf	??___xxtofl+2,f
  3615  057D  0DF7               	rlf	??___xxtofl+3,f
  3616  057E                     u1400:
  3617  057E  0B89               	decfsz	9,f
  3618  057F  2D7A               	goto	u1405
  3619  0580  0874               	movf	??___xxtofl,w
  3620  0581  04FA               	iorwf	___xxtofl@arg,f
  3621  0582  0875               	movf	??___xxtofl+1,w
  3622  0583  04FB               	iorwf	___xxtofl@arg+1,f
  3623  0584  0876               	movf	??___xxtofl+2,w
  3624  0585  04FC               	iorwf	___xxtofl@arg+2,f
  3625  0586  0877               	movf	??___xxtofl+3,w
  3626  0587  04FD               	iorwf	___xxtofl@arg+3,f
  3627  0588                     l2090:
  3628  0588  0878               	movf	___xxtofl@sign,w
  3629  0589  1903               	btfsc	3,2
  3630  058A  2D8C               	goto	u1411
  3631  058B  2D8D               	goto	u1410
  3632  058C                     u1411:
  3633  058C  2D92               	goto	l2096
  3634  058D                     u1410:
  3635  058D                     l2092:
  3636  058D  1FF3               	btfss	___xxtofl@val+3,7
  3637  058E  2D90               	goto	u1421
  3638  058F  2D91               	goto	u1420
  3639  0590                     u1421:
  3640  0590  2D92               	goto	l2096
  3641  0591                     u1420:
  3642  0591                     l2094:
  3643  0591  17FD               	bsf	___xxtofl@arg+3,7
  3644  0592                     l2096:
  3645  0592  087D               	movf	___xxtofl@arg+3,w
  3646  0593  00F3               	movwf	?___xxtofl+3
  3647  0594  087C               	movf	___xxtofl@arg+2,w
  3648  0595  00F2               	movwf	?___xxtofl+2
  3649  0596  087B               	movf	___xxtofl@arg+1,w
  3650  0597  00F1               	movwf	?___xxtofl+1
  3651  0598  087A               	movf	___xxtofl@arg,w
  3652  0599  00F0               	movwf	?___xxtofl
  3653  059A                     l1121:
  3654  059A  0008               	return
  3655  059B                     __end_of___xxtofl:
  3656                           
  3657                           	psect	text19
  3658  0345                     __ptext19:	
  3659 ;; *************** function ___fltol *****************
  3660 ;; Defined at:
  3661 ;;		line 43 in file "C:\Program Files\Microchip\xc8\v2.32\pic\sources\c99\common\fltol.c"
  3662 ;; Parameters:    Size  Location     Type
  3663 ;;  f1              4   26[BANK0 ] unsigned char 
  3664 ;; Auto vars:     Size  Location     Type
  3665 ;;  exp1            1   36[BANK0 ] unsigned char 
  3666 ;;  sign1           1   35[BANK0 ] unsigned char 
  3667 ;; Return value:  Size  Location     Type
  3668 ;;                  4   26[BANK0 ] long 
  3669 ;; Registers used:
  3670 ;;		wreg, status,2, status,0
  3671 ;; Tracked objects:
  3672 ;;		On entry : 0/0
  3673 ;;		On exit  : 0/0
  3674 ;;		Unchanged: 0/0
  3675 ;; Data sizes:     COMMON   BANK0   BANK1   BANK2   BANK3   BANK4
  3676 ;;      Params:         0       4       0       0       0       0
  3677 ;;      Locals:         0       2       0       0       0       0
  3678 ;;      Temps:          0       5       0       0       0       0
  3679 ;;      Totals:         0      11       0       0       0       0
  3680 ;;Total ram usage:       11 bytes
  3681 ;; Hardware stack levels used: 1
  3682 ;; This function calls:
  3683 ;;		Nothing
  3684 ;; This function is called by:
  3685 ;;		_Ds_Regla_de_3
  3686 ;; This function uses a non-reentrant model
  3687 ;;
  3688                           
  3689                           
  3690                           ;psect for function ___fltol
  3691  0345                     ___fltol:
  3692  0345                     l1832:	
  3693                           ;incstack = 0
  3694                           ; Regs used in ___fltol: [wreg+status,2+status,0]
  3695                           
  3696  0345  1003               	clrc
  3697  0346  0020               	movlb	0	; select bank0
  3698  0347  0D3C               	rlf	___fltol@f1+2,w
  3699  0348  0D3D               	rlf	___fltol@f1+3,w
  3700  0349  00BE               	movwf	??___fltol
  3701  034A  083E               	movf	??___fltol,w
  3702  034B  00C4               	movwf	___fltol@exp1
  3703  034C  0844               	movf	___fltol@exp1,w
  3704  034D  1D03               	btfss	3,2
  3705  034E  2B50               	goto	u801
  3706  034F  2B51               	goto	u800
  3707  0350                     u801:
  3708  0350  2B5A               	goto	l1838
  3709  0351                     u800:
  3710  0351                     l1834:
  3711  0351  3000               	movlw	0
  3712  0352  00BD               	movwf	?___fltol+3
  3713  0353  3000               	movlw	0
  3714  0354  00BC               	movwf	?___fltol+2
  3715  0355  3000               	movlw	0
  3716  0356  00BB               	movwf	?___fltol+1
  3717  0357  3000               	movlw	0
  3718  0358  00BA               	movwf	?___fltol
  3719  0359  2BB9               	goto	l872
  3720  035A                     l1838:
  3721  035A  083A               	movf	___fltol@f1,w
  3722  035B  00BE               	movwf	??___fltol
  3723  035C  083B               	movf	___fltol@f1+1,w
  3724  035D  00BF               	movwf	??___fltol+1
  3725  035E  083C               	movf	___fltol@f1+2,w
  3726  035F  00C0               	movwf	??___fltol+2
  3727  0360  083D               	movf	___fltol@f1+3,w
  3728  0361  00C1               	movwf	??___fltol+3
  3729  0362  301F               	movlw	31
  3730  0363                     u815:
  3731  0363  36C1               	lsrf	??___fltol+3,f
  3732  0364  0CC0               	rrf	??___fltol+2,f
  3733  0365  0CBF               	rrf	??___fltol+1,f
  3734  0366  0CBE               	rrf	??___fltol,f
  3735  0367                     u810:
  3736  0367  0B89               	decfsz	9,f
  3737  0368  2B63               	goto	u815
  3738  0369  083E               	movf	??___fltol,w
  3739  036A  00C2               	movwf	??___fltol+4
  3740  036B  0842               	movf	??___fltol+4,w
  3741  036C  00C3               	movwf	___fltol@sign1
  3742  036D                     l1840:
  3743  036D  17BC               	bsf	___fltol@f1+2,7
  3744  036E                     l1842:
  3745  036E  30FF               	movlw	255
  3746  036F  05BA               	andwf	___fltol@f1,f
  3747  0370  30FF               	movlw	255
  3748  0371  05BB               	andwf	___fltol@f1+1,f
  3749  0372  30FF               	movlw	255
  3750  0373  05BC               	andwf	___fltol@f1+2,f
  3751  0374  3000               	movlw	0
  3752  0375  05BD               	andwf	___fltol@f1+3,f
  3753  0376                     l1844:
  3754  0376  3096               	movlw	150
  3755  0377  02C4               	subwf	___fltol@exp1,f
  3756  0378                     l1846:
  3757  0378  1FC4               	btfss	___fltol@exp1,7
  3758  0379  2B7B               	goto	u821
  3759  037A  2B7C               	goto	u820
  3760  037B                     u821:
  3761  037B  2B94               	goto	l1856
  3762  037C                     u820:
  3763  037C                     l1848:
  3764  037C  0844               	movf	___fltol@exp1,w
  3765  037D  3A80               	xorlw	128
  3766  037E  3E97               	addlw	151
  3767  037F  1803               	skipnc
  3768  0380  2B82               	goto	u831
  3769  0381  2B83               	goto	u830
  3770  0382                     u831:
  3771  0382  2B84               	goto	l1854
  3772  0383                     u830:
  3773  0383  2B51               	goto	l1834
  3774  0384                     l1854:
  3775  0384  3001               	movlw	1
  3776  0385                     u845:
  3777  0385  36BD               	lsrf	___fltol@f1+3,f
  3778  0386  0CBC               	rrf	___fltol@f1+2,f
  3779  0387  0CBB               	rrf	___fltol@f1+1,f
  3780  0388  0CBA               	rrf	___fltol@f1,f
  3781  0389  0B89               	decfsz	9,f
  3782  038A  2B85               	goto	u845
  3783  038B  3001               	movlw	1
  3784  038C  00BE               	movwf	??___fltol
  3785  038D  083E               	movf	??___fltol,w
  3786  038E  07C4               	addwf	___fltol@exp1,f
  3787  038F  1D03               	btfss	3,2
  3788  0390  2B92               	goto	u851
  3789  0391  2B93               	goto	u850
  3790  0392                     u851:
  3791  0392  2B84               	goto	l1854
  3792  0393                     u850:
  3793  0393  2BA9               	goto	l1864
  3794  0394                     l1856:
  3795  0394  3020               	movlw	32
  3796  0395  0244               	subwf	___fltol@exp1,w
  3797  0396  1C03               	skipc
  3798  0397  2B99               	goto	u861
  3799  0398  2B9A               	goto	u860
  3800  0399                     u861:
  3801  0399  2BA4               	goto	l879
  3802  039A                     u860:
  3803  039A  2B51               	goto	l1834
  3804  039B                     l1862:
  3805  039B  3001               	movlw	1
  3806  039C                     u875:
  3807  039C  35BA               	lslf	___fltol@f1,f
  3808  039D  0DBB               	rlf	___fltol@f1+1,f
  3809  039E  0DBC               	rlf	___fltol@f1+2,f
  3810  039F  0DBD               	rlf	___fltol@f1+3,f
  3811  03A0  0B89               	decfsz	9,f
  3812  03A1  2B9C               	goto	u875
  3813  03A2  3001               	movlw	1
  3814  03A3  02C4               	subwf	___fltol@exp1,f
  3815  03A4                     l879:
  3816  03A4  0844               	movf	___fltol@exp1,w
  3817  03A5  1D03               	btfss	3,2
  3818  03A6  2BA8               	goto	u881
  3819  03A7  2BA9               	goto	u880
  3820  03A8                     u881:
  3821  03A8  2B9B               	goto	l1862
  3822  03A9                     u880:
  3823  03A9                     l1864:
  3824  03A9  0843               	movf	___fltol@sign1,w
  3825  03AA  1903               	btfsc	3,2
  3826  03AB  2BAD               	goto	u891
  3827  03AC  2BAE               	goto	u890
  3828  03AD                     u891:
  3829  03AD  2BB9               	goto	l882
  3830  03AE                     u890:
  3831  03AE                     l1866:
  3832  03AE  09BA               	comf	___fltol@f1,f
  3833  03AF  09BB               	comf	___fltol@f1+1,f
  3834  03B0  09BC               	comf	___fltol@f1+2,f
  3835  03B1  09BD               	comf	___fltol@f1+3,f
  3836  03B2  0ABA               	incf	___fltol@f1,f
  3837  03B3  1903               	skipnz
  3838  03B4  0ABB               	incf	___fltol@f1+1,f
  3839  03B5  1903               	skipnz
  3840  03B6  0ABC               	incf	___fltol@f1+2,f
  3841  03B7  1903               	skipnz
  3842  03B8  0ABD               	incf	___fltol@f1+3,f
  3843  03B9                     l882:
  3844  03B9                     l872:
  3845  03B9  0008               	return
  3846  03BA                     __end_of___fltol:
  3847                           
  3848                           	psect	text20
  3849  059B                     __ptext20:	
  3850 ;; *************** function ___flmul *****************
  3851 ;; Defined at:
  3852 ;;		line 8 in file "C:\Program Files\Microchip\xc8\v2.32\pic\sources\c99\common\sprcmul.c"
  3853 ;; Parameters:    Size  Location     Type
  3854 ;;  b               4    0[BANK0 ] long 
  3855 ;;  a               4    4[BANK0 ] long 
  3856 ;; Auto vars:     Size  Location     Type
  3857 ;;  prod            4   20[BANK0 ] struct .
  3858 ;;  grs             4   14[BANK0 ] unsigned long 
  3859 ;;  temp            2   24[BANK0 ] struct .
  3860 ;;  bexp            1   19[BANK0 ] unsigned char 
  3861 ;;  aexp            1   18[BANK0 ] unsigned char 
  3862 ;;  sign            1   13[BANK0 ] unsigned char 
  3863 ;; Return value:  Size  Location     Type
  3864 ;;                  4    0[BANK0 ] unsigned char 
  3865 ;; Registers used:
  3866 ;;		wreg, status,2, status,0, pclath, cstack
  3867 ;; Tracked objects:
  3868 ;;		On entry : 0/0
  3869 ;;		On exit  : 0/0
  3870 ;;		Unchanged: 0/0
  3871 ;; Data sizes:     COMMON   BANK0   BANK1   BANK2   BANK3   BANK4
  3872 ;;      Params:         0       8       0       0       0       0
  3873 ;;      Locals:         0      13       0       0       0       0
  3874 ;;      Temps:          0       5       0       0       0       0
  3875 ;;      Totals:         0      26       0       0       0       0
  3876 ;;Total ram usage:       26 bytes
  3877 ;; Hardware stack levels used: 1
  3878 ;; Hardware stack levels required when called: 1
  3879 ;; This function calls:
  3880 ;;		__Umul8_16
  3881 ;; This function is called by:
  3882 ;;		_Ds_Regla_de_3
  3883 ;; This function uses a non-reentrant model
  3884 ;;
  3885                           
  3886                           
  3887                           ;psect for function ___flmul
  3888  059B                     ___flmul:
  3889  059B                     l1916:	
  3890                           ;incstack = 0
  3891                           ; Regs used in ___flmul: [wreg+status,2+status,0+pclath+cstack]
  3892                           
  3893  059B  0020               	movlb	0	; select bank0
  3894  059C  0823               	movf	___flmul@b+3,w
  3895  059D  3980               	andlw	128
  3896  059E  00A8               	movwf	??___flmul
  3897  059F  0828               	movf	??___flmul,w
  3898  05A0  00AD               	movwf	___flmul@sign
  3899  05A1                     l1918:
  3900  05A1  3523               	lslf	___flmul@b+3,w
  3901  05A2  00A8               	movwf	??___flmul
  3902  05A3  0828               	movf	??___flmul,w
  3903  05A4  00B3               	movwf	___flmul@bexp
  3904  05A5                     l1920:
  3905  05A5  1FA2               	btfss	___flmul@b+2,7
  3906  05A6  2DA8               	goto	u1031
  3907  05A7  2DA9               	goto	u1030
  3908  05A8                     u1031:
  3909  05A8  2DAA               	goto	l1924
  3910  05A9                     u1030:
  3911  05A9                     l1922:
  3912  05A9  1433               	bsf	___flmul@bexp,0
  3913  05AA                     l1924:
  3914  05AA  0833               	movf	___flmul@bexp,w
  3915  05AB  1903               	btfsc	3,2
  3916  05AC  2DAE               	goto	u1041
  3917  05AD  2DAF               	goto	u1040
  3918  05AE                     u1041:
  3919  05AE  2DBE               	goto	l1932
  3920  05AF                     u1040:
  3921  05AF                     l1926:
  3922  05AF  0A33               	incf	___flmul@bexp,w
  3923  05B0  1D03               	btfss	3,2
  3924  05B1  2DB3               	goto	u1051
  3925  05B2  2DB4               	goto	u1050
  3926  05B3                     u1051:
  3927  05B3  2DBC               	goto	l1930
  3928  05B4                     u1050:
  3929  05B4                     l1928:
  3930  05B4  3000               	movlw	0
  3931  05B5  00A3               	movwf	___flmul@b+3
  3932  05B6  3000               	movlw	0
  3933  05B7  00A2               	movwf	___flmul@b+2
  3934  05B8  3000               	movlw	0
  3935  05B9  00A1               	movwf	___flmul@b+1
  3936  05BA  3000               	movlw	0
  3937  05BB  00A0               	movwf	___flmul@b
  3938  05BC                     l1930:
  3939  05BC  17A2               	bsf	___flmul@b+2,7
  3940  05BD  2DC6               	goto	l1934
  3941  05BE                     l1932:
  3942  05BE  3000               	movlw	0
  3943  05BF  00A3               	movwf	___flmul@b+3
  3944  05C0  3000               	movlw	0
  3945  05C1  00A2               	movwf	___flmul@b+2
  3946  05C2  3000               	movlw	0
  3947  05C3  00A1               	movwf	___flmul@b+1
  3948  05C4  3000               	movlw	0
  3949  05C5  00A0               	movwf	___flmul@b
  3950  05C6                     l1934:
  3951  05C6  0827               	movf	___flmul@a+3,w
  3952  05C7  3980               	andlw	128
  3953  05C8  00A8               	movwf	??___flmul
  3954  05C9  0828               	movf	??___flmul,w
  3955  05CA  06AD               	xorwf	___flmul@sign,f
  3956  05CB                     l1936:
  3957  05CB  3527               	lslf	___flmul@a+3,w
  3958  05CC  00A8               	movwf	??___flmul
  3959  05CD  0828               	movf	??___flmul,w
  3960  05CE  00B2               	movwf	___flmul@aexp
  3961  05CF                     l1938:
  3962  05CF  1FA6               	btfss	___flmul@a+2,7
  3963  05D0  2DD2               	goto	u1061
  3964  05D1  2DD3               	goto	u1060
  3965  05D2                     u1061:
  3966  05D2  2DD4               	goto	l1942
  3967  05D3                     u1060:
  3968  05D3                     l1940:
  3969  05D3  1432               	bsf	___flmul@aexp,0
  3970  05D4                     l1942:
  3971  05D4  0832               	movf	___flmul@aexp,w
  3972  05D5  1903               	btfsc	3,2
  3973  05D6  2DD8               	goto	u1071
  3974  05D7  2DD9               	goto	u1070
  3975  05D8                     u1071:
  3976  05D8  2DE8               	goto	l1950
  3977  05D9                     u1070:
  3978  05D9                     l1944:
  3979  05D9  0A32               	incf	___flmul@aexp,w
  3980  05DA  1D03               	btfss	3,2
  3981  05DB  2DDD               	goto	u1081
  3982  05DC  2DDE               	goto	u1080
  3983  05DD                     u1081:
  3984  05DD  2DE6               	goto	l1948
  3985  05DE                     u1080:
  3986  05DE                     l1946:
  3987  05DE  3000               	movlw	0
  3988  05DF  00A7               	movwf	___flmul@a+3
  3989  05E0  3000               	movlw	0
  3990  05E1  00A6               	movwf	___flmul@a+2
  3991  05E2  3000               	movlw	0
  3992  05E3  00A5               	movwf	___flmul@a+1
  3993  05E4  3000               	movlw	0
  3994  05E5  00A4               	movwf	___flmul@a
  3995  05E6                     l1948:
  3996  05E6  17A6               	bsf	___flmul@a+2,7
  3997  05E7  2DF0               	goto	l1952
  3998  05E8                     l1950:
  3999  05E8  3000               	movlw	0
  4000  05E9  00A7               	movwf	___flmul@a+3
  4001  05EA  3000               	movlw	0
  4002  05EB  00A6               	movwf	___flmul@a+2
  4003  05EC  3000               	movlw	0
  4004  05ED  00A5               	movwf	___flmul@a+1
  4005  05EE  3000               	movlw	0
  4006  05EF  00A4               	movwf	___flmul@a
  4007  05F0                     l1952:
  4008  05F0  0832               	movf	___flmul@aexp,w
  4009  05F1  1903               	btfsc	3,2
  4010  05F2  2DF4               	goto	u1091
  4011  05F3  2DF5               	goto	u1090
  4012  05F4                     u1091:
  4013  05F4  2DFA               	goto	l1956
  4014  05F5                     u1090:
  4015  05F5                     l1954:
  4016  05F5  0833               	movf	___flmul@bexp,w
  4017  05F6  1D03               	btfss	3,2
  4018  05F7  2DF9               	goto	u1101
  4019  05F8  2DFA               	goto	u1100
  4020  05F9                     u1101:
  4021  05F9  2E03               	goto	l1960
  4022  05FA                     u1100:
  4023  05FA                     l1956:
  4024  05FA  3000               	movlw	0
  4025  05FB  00A3               	movwf	?___flmul+3
  4026  05FC  3000               	movlw	0
  4027  05FD  00A2               	movwf	?___flmul+2
  4028  05FE  3000               	movlw	0
  4029  05FF  00A1               	movwf	?___flmul+1
  4030  0600  3000               	movlw	0
  4031  0601  00A0               	movwf	?___flmul
  4032  0602  2FF1               	goto	l1075
  4033  0603                     l1960:
  4034  0603  0820               	movf	___flmul@b,w
  4035  0604  00A8               	movwf	??___flmul
  4036  0605  0828               	movf	??___flmul,w
  4037  0606  00F0               	movwf	__Umul8_16@multiplicand
  4038  0607  0826               	movf	___flmul@a+2,w
  4039  0608  3181  218F  3185   	fcall	__Umul8_16
  4040  060B  0871               	movf	?__Umul8_16+1,w
  4041  060C  0020               	movlb	0	; select bank0
  4042  060D  00B9               	movwf	___flmul@temp+1
  4043  060E  0870               	movf	?__Umul8_16,w
  4044  060F  00B8               	movwf	___flmul@temp
  4045  0610                     l1962:
  4046  0610  0838               	movf	___flmul@temp,w
  4047  0611  00A8               	movwf	??___flmul
  4048  0612  01A9               	clrf	??___flmul+1
  4049  0613  01AA               	clrf	??___flmul+2
  4050  0614  01AB               	clrf	??___flmul+3
  4051  0615  082B               	movf	??___flmul+3,w
  4052  0616  00B1               	movwf	___flmul@grs+3
  4053  0617  082A               	movf	??___flmul+2,w
  4054  0618  00B0               	movwf	___flmul@grs+2
  4055  0619  0829               	movf	??___flmul+1,w
  4056  061A  00AF               	movwf	___flmul@grs+1
  4057  061B  0828               	movf	??___flmul,w
  4058  061C  00AE               	movwf	___flmul@grs
  4059  061D                     l1964:
  4060  061D  0839               	movf	___flmul@temp+1,w
  4061  061E  00A8               	movwf	??___flmul
  4062  061F  01A9               	clrf	??___flmul+1
  4063  0620  01AA               	clrf	??___flmul+2
  4064  0621  01AB               	clrf	??___flmul+3
  4065  0622  082B               	movf	??___flmul+3,w
  4066  0623  00B7               	movwf	___flmul@prod+3
  4067  0624  082A               	movf	??___flmul+2,w
  4068  0625  00B6               	movwf	___flmul@prod+2
  4069  0626  0829               	movf	??___flmul+1,w
  4070  0627  00B5               	movwf	___flmul@prod+1
  4071  0628  0828               	movf	??___flmul,w
  4072  0629  00B4               	movwf	___flmul@prod
  4073  062A  0821               	movf	___flmul@b+1,w
  4074  062B  00A8               	movwf	??___flmul
  4075  062C  0828               	movf	??___flmul,w
  4076  062D  00F0               	movwf	__Umul8_16@multiplicand
  4077  062E  0825               	movf	___flmul@a+1,w
  4078  062F  3181  218F  3185   	fcall	__Umul8_16
  4079  0632  0871               	movf	?__Umul8_16+1,w
  4080  0633  0020               	movlb	0	; select bank0
  4081  0634  00B9               	movwf	___flmul@temp+1
  4082  0635  0870               	movf	?__Umul8_16,w
  4083  0636  00B8               	movwf	___flmul@temp
  4084  0637                     l1966:
  4085  0637  0838               	movf	___flmul@temp,w
  4086  0638  00A8               	movwf	??___flmul
  4087  0639  01A9               	clrf	??___flmul+1
  4088  063A  01AA               	clrf	??___flmul+2
  4089  063B  01AB               	clrf	??___flmul+3
  4090  063C  0828               	movf	??___flmul,w
  4091  063D  07AE               	addwf	___flmul@grs,f
  4092  063E  0829               	movf	??___flmul+1,w
  4093  063F  3DAF               	addwfc	___flmul@grs+1,f
  4094  0640  082A               	movf	??___flmul+2,w
  4095  0641  3DB0               	addwfc	___flmul@grs+2,f
  4096  0642  082B               	movf	??___flmul+3,w
  4097  0643  3DB1               	addwfc	___flmul@grs+3,f
  4098  0644                     l1968:
  4099  0644  0839               	movf	___flmul@temp+1,w
  4100  0645  00A8               	movwf	??___flmul
  4101  0646  01A9               	clrf	??___flmul+1
  4102  0647  01AA               	clrf	??___flmul+2
  4103  0648  01AB               	clrf	??___flmul+3
  4104  0649  0828               	movf	??___flmul,w
  4105  064A  07B4               	addwf	___flmul@prod,f
  4106  064B  0829               	movf	??___flmul+1,w
  4107  064C  3DB5               	addwfc	___flmul@prod+1,f
  4108  064D  082A               	movf	??___flmul+2,w
  4109  064E  3DB6               	addwfc	___flmul@prod+2,f
  4110  064F  082B               	movf	??___flmul+3,w
  4111  0650  3DB7               	addwfc	___flmul@prod+3,f
  4112  0651  0822               	movf	___flmul@b+2,w
  4113  0652  00A8               	movwf	??___flmul
  4114  0653  0828               	movf	??___flmul,w
  4115  0654  00F0               	movwf	__Umul8_16@multiplicand
  4116  0655  0824               	movf	___flmul@a,w
  4117  0656  3181  218F  3185   	fcall	__Umul8_16
  4118  0659  0871               	movf	?__Umul8_16+1,w
  4119  065A  0020               	movlb	0	; select bank0
  4120  065B  00B9               	movwf	___flmul@temp+1
  4121  065C  0870               	movf	?__Umul8_16,w
  4122  065D  00B8               	movwf	___flmul@temp
  4123  065E                     l1970:
  4124  065E  0838               	movf	___flmul@temp,w
  4125  065F  00A8               	movwf	??___flmul
  4126  0660  01A9               	clrf	??___flmul+1
  4127  0661  01AA               	clrf	??___flmul+2
  4128  0662  01AB               	clrf	??___flmul+3
  4129  0663  0828               	movf	??___flmul,w
  4130  0664  07AE               	addwf	___flmul@grs,f
  4131  0665  0829               	movf	??___flmul+1,w
  4132  0666  3DAF               	addwfc	___flmul@grs+1,f
  4133  0667  082A               	movf	??___flmul+2,w
  4134  0668  3DB0               	addwfc	___flmul@grs+2,f
  4135  0669  082B               	movf	??___flmul+3,w
  4136  066A  3DB1               	addwfc	___flmul@grs+3,f
  4137  066B                     l1972:
  4138  066B  0839               	movf	___flmul@temp+1,w
  4139  066C  00A8               	movwf	??___flmul
  4140  066D  01A9               	clrf	??___flmul+1
  4141  066E  01AA               	clrf	??___flmul+2
  4142  066F  01AB               	clrf	??___flmul+3
  4143  0670  0828               	movf	??___flmul,w
  4144  0671  07B4               	addwf	___flmul@prod,f
  4145  0672  0829               	movf	??___flmul+1,w
  4146  0673  3DB5               	addwfc	___flmul@prod+1,f
  4147  0674  082A               	movf	??___flmul+2,w
  4148  0675  3DB6               	addwfc	___flmul@prod+2,f
  4149  0676  082B               	movf	??___flmul+3,w
  4150  0677  3DB7               	addwfc	___flmul@prod+3,f
  4151  0678                     l1974:
  4152  0678  3008               	movlw	8
  4153  0679                     u1115:
  4154  0679  35AE               	lslf	___flmul@grs,f
  4155  067A  0DAF               	rlf	___flmul@grs+1,f
  4156  067B  0DB0               	rlf	___flmul@grs+2,f
  4157  067C  0DB1               	rlf	___flmul@grs+3,f
  4158  067D  0B89               	decfsz	9,f
  4159  067E  2E79               	goto	u1115
  4160  067F                     l1976:
  4161  067F  0821               	movf	___flmul@b+1,w
  4162  0680  00A8               	movwf	??___flmul
  4163  0681  0828               	movf	??___flmul,w
  4164  0682  00F0               	movwf	__Umul8_16@multiplicand
  4165  0683  0824               	movf	___flmul@a,w
  4166  0684  3181  218F  3185   	fcall	__Umul8_16
  4167  0687  0871               	movf	?__Umul8_16+1,w
  4168  0688  0020               	movlb	0	; select bank0
  4169  0689  00B9               	movwf	___flmul@temp+1
  4170  068A  0870               	movf	?__Umul8_16,w
  4171  068B  00B8               	movwf	___flmul@temp
  4172  068C                     l1978:
  4173  068C  0838               	movf	___flmul@temp,w
  4174  068D  07AE               	addwf	___flmul@grs,f
  4175  068E  0839               	movf	___flmul@temp+1,w
  4176  068F  3DAF               	addwfc	___flmul@grs+1,f
  4177  0690  3000               	movlw	0
  4178  0691  3DB0               	addwfc	___flmul@grs+2,f
  4179  0692  3DB1               	addwfc	___flmul@grs+3,f
  4180  0693                     l1980:
  4181  0693  0820               	movf	___flmul@b,w
  4182  0694  00A8               	movwf	??___flmul
  4183  0695  0828               	movf	??___flmul,w
  4184  0696  00F0               	movwf	__Umul8_16@multiplicand
  4185  0697  0825               	movf	___flmul@a+1,w
  4186  0698  3181  218F  3185   	fcall	__Umul8_16
  4187  069B  0871               	movf	?__Umul8_16+1,w
  4188  069C  0020               	movlb	0	; select bank0
  4189  069D  00B9               	movwf	___flmul@temp+1
  4190  069E  0870               	movf	?__Umul8_16,w
  4191  069F  00B8               	movwf	___flmul@temp
  4192  06A0                     l1982:
  4193  06A0  0838               	movf	___flmul@temp,w
  4194  06A1  07AE               	addwf	___flmul@grs,f
  4195  06A2  0839               	movf	___flmul@temp+1,w
  4196  06A3  3DAF               	addwfc	___flmul@grs+1,f
  4197  06A4  3000               	movlw	0
  4198  06A5  3DB0               	addwfc	___flmul@grs+2,f
  4199  06A6  3DB1               	addwfc	___flmul@grs+3,f
  4200  06A7                     l1984:
  4201  06A7  3008               	movlw	8
  4202  06A8                     u1125:
  4203  06A8  35AE               	lslf	___flmul@grs,f
  4204  06A9  0DAF               	rlf	___flmul@grs+1,f
  4205  06AA  0DB0               	rlf	___flmul@grs+2,f
  4206  06AB  0DB1               	rlf	___flmul@grs+3,f
  4207  06AC  0B89               	decfsz	9,f
  4208  06AD  2EA8               	goto	u1125
  4209  06AE  0820               	movf	___flmul@b,w
  4210  06AF  00A8               	movwf	??___flmul
  4211  06B0  0828               	movf	??___flmul,w
  4212  06B1  00F0               	movwf	__Umul8_16@multiplicand
  4213  06B2  0824               	movf	___flmul@a,w
  4214  06B3  3181  218F  3185   	fcall	__Umul8_16
  4215  06B6  0871               	movf	?__Umul8_16+1,w
  4216  06B7  0020               	movlb	0	; select bank0
  4217  06B8  00B9               	movwf	___flmul@temp+1
  4218  06B9  0870               	movf	?__Umul8_16,w
  4219  06BA  00B8               	movwf	___flmul@temp
  4220  06BB                     l1986:
  4221  06BB  0838               	movf	___flmul@temp,w
  4222  06BC  07AE               	addwf	___flmul@grs,f
  4223  06BD  0839               	movf	___flmul@temp+1,w
  4224  06BE  3DAF               	addwfc	___flmul@grs+1,f
  4225  06BF  3000               	movlw	0
  4226  06C0  3DB0               	addwfc	___flmul@grs+2,f
  4227  06C1  3DB1               	addwfc	___flmul@grs+3,f
  4228  06C2                     l1988:
  4229  06C2  0821               	movf	___flmul@b+1,w
  4230  06C3  00A8               	movwf	??___flmul
  4231  06C4  0828               	movf	??___flmul,w
  4232  06C5  00F0               	movwf	__Umul8_16@multiplicand
  4233  06C6  0826               	movf	___flmul@a+2,w
  4234  06C7  3181  218F  3185   	fcall	__Umul8_16
  4235  06CA  0871               	movf	?__Umul8_16+1,w
  4236  06CB  0020               	movlb	0	; select bank0
  4237  06CC  00B9               	movwf	___flmul@temp+1
  4238  06CD  0870               	movf	?__Umul8_16,w
  4239  06CE  00B8               	movwf	___flmul@temp
  4240  06CF  0838               	movf	___flmul@temp,w
  4241  06D0  07B4               	addwf	___flmul@prod,f
  4242  06D1  0839               	movf	___flmul@temp+1,w
  4243  06D2  3DB5               	addwfc	___flmul@prod+1,f
  4244  06D3  3000               	movlw	0
  4245  06D4  3DB6               	addwfc	___flmul@prod+2,f
  4246  06D5  3DB7               	addwfc	___flmul@prod+3,f
  4247  06D6                     l1990:
  4248  06D6  0822               	movf	___flmul@b+2,w
  4249  06D7  00A8               	movwf	??___flmul
  4250  06D8  0828               	movf	??___flmul,w
  4251  06D9  00F0               	movwf	__Umul8_16@multiplicand
  4252  06DA  0825               	movf	___flmul@a+1,w
  4253  06DB  3181  218F  3185   	fcall	__Umul8_16
  4254  06DE  0871               	movf	?__Umul8_16+1,w
  4255  06DF  0020               	movlb	0	; select bank0
  4256  06E0  00B9               	movwf	___flmul@temp+1
  4257  06E1  0870               	movf	?__Umul8_16,w
  4258  06E2  00B8               	movwf	___flmul@temp
  4259  06E3                     l1992:
  4260  06E3  0838               	movf	___flmul@temp,w
  4261  06E4  07B4               	addwf	___flmul@prod,f
  4262  06E5  0839               	movf	___flmul@temp+1,w
  4263  06E6  3DB5               	addwfc	___flmul@prod+1,f
  4264  06E7  3000               	movlw	0
  4265  06E8  3DB6               	addwfc	___flmul@prod+2,f
  4266  06E9  3DB7               	addwfc	___flmul@prod+3,f
  4267  06EA  0822               	movf	___flmul@b+2,w
  4268  06EB  00A8               	movwf	??___flmul
  4269  06EC  0828               	movf	??___flmul,w
  4270  06ED  00F0               	movwf	__Umul8_16@multiplicand
  4271  06EE  0826               	movf	___flmul@a+2,w
  4272  06EF  3181  218F  3185   	fcall	__Umul8_16
  4273  06F2  0871               	movf	?__Umul8_16+1,w
  4274  06F3  0020               	movlb	0	; select bank0
  4275  06F4  00B9               	movwf	___flmul@temp+1
  4276  06F5  0870               	movf	?__Umul8_16,w
  4277  06F6  00B8               	movwf	___flmul@temp
  4278  06F7                     l1994:
  4279  06F7  0838               	movf	___flmul@temp,w
  4280  06F8  00A8               	movwf	??___flmul
  4281  06F9  0839               	movf	___flmul@temp+1,w
  4282  06FA  00A9               	movwf	??___flmul+1
  4283  06FB  01AA               	clrf	??___flmul+2
  4284  06FC  01AB               	clrf	??___flmul+3
  4285  06FD  3008               	movlw	8
  4286  06FE                     u1135:
  4287  06FE  35A8               	lslf	??___flmul,f
  4288  06FF  0DA9               	rlf	??___flmul+1,f
  4289  0700  0DAA               	rlf	??___flmul+2,f
  4290  0701  0DAB               	rlf	??___flmul+3,f
  4291  0702                     u1130:
  4292  0702  0B89               	decfsz	9,f
  4293  0703  2EFE               	goto	u1135
  4294  0704  0828               	movf	??___flmul,w
  4295  0705  07B4               	addwf	___flmul@prod,f
  4296  0706  0829               	movf	??___flmul+1,w
  4297  0707  3DB5               	addwfc	___flmul@prod+1,f
  4298  0708  082A               	movf	??___flmul+2,w
  4299  0709  3DB6               	addwfc	___flmul@prod+2,f
  4300  070A  082B               	movf	??___flmul+3,w
  4301  070B  3DB7               	addwfc	___flmul@prod+3,f
  4302  070C                     l1996:
  4303  070C  082E               	movf	___flmul@grs,w
  4304  070D  00A8               	movwf	??___flmul
  4305  070E  082F               	movf	___flmul@grs+1,w
  4306  070F  00A9               	movwf	??___flmul+1
  4307  0710  0830               	movf	___flmul@grs+2,w
  4308  0711  00AA               	movwf	??___flmul+2
  4309  0712  0831               	movf	___flmul@grs+3,w
  4310  0713  00AB               	movwf	??___flmul+3
  4311  0714  3018               	movlw	24
  4312  0715                     u1145:
  4313  0715  36AB               	lsrf	??___flmul+3,f
  4314  0716  0CAA               	rrf	??___flmul+2,f
  4315  0717  0CA9               	rrf	??___flmul+1,f
  4316  0718  0CA8               	rrf	??___flmul,f
  4317  0719                     u1140:
  4318  0719  0B89               	decfsz	9,f
  4319  071A  2F15               	goto	u1145
  4320  071B  0828               	movf	??___flmul,w
  4321  071C  07B4               	addwf	___flmul@prod,f
  4322  071D  0829               	movf	??___flmul+1,w
  4323  071E  3DB5               	addwfc	___flmul@prod+1,f
  4324  071F  082A               	movf	??___flmul+2,w
  4325  0720  3DB6               	addwfc	___flmul@prod+2,f
  4326  0721  082B               	movf	??___flmul+3,w
  4327  0722  3DB7               	addwfc	___flmul@prod+3,f
  4328  0723                     l1998:
  4329  0723  3008               	movlw	8
  4330  0724                     u1155:
  4331  0724  35AE               	lslf	___flmul@grs,f
  4332  0725  0DAF               	rlf	___flmul@grs+1,f
  4333  0726  0DB0               	rlf	___flmul@grs+2,f
  4334  0727  0DB1               	rlf	___flmul@grs+3,f
  4335  0728  0B89               	decfsz	9,f
  4336  0729  2F24               	goto	u1155
  4337  072A                     l2000:
  4338  072A  0833               	movf	___flmul@bexp,w
  4339  072B  0732               	addwf	___flmul@aexp,w
  4340  072C  00A8               	movwf	??___flmul
  4341  072D  01A9               	clrf	??___flmul+1
  4342  072E  0DA9               	rlf	??___flmul+1,f
  4343  072F  0828               	movf	??___flmul,w
  4344  0730  3E82               	addlw	130
  4345  0731  00B8               	movwf	___flmul@temp
  4346  0732  30FF               	movlw	255
  4347  0733  3D29               	addwfc	??___flmul+1,w
  4348  0734  00B9               	movwf	___flmul@temp+1
  4349  0735  2F4D               	goto	l2012
  4350  0736                     l2002:
  4351  0736  3001               	movlw	1
  4352  0737                     u1165:
  4353  0737  35B4               	lslf	___flmul@prod,f
  4354  0738  0DB5               	rlf	___flmul@prod+1,f
  4355  0739  0DB6               	rlf	___flmul@prod+2,f
  4356  073A  0DB7               	rlf	___flmul@prod+3,f
  4357  073B  0B89               	decfsz	9,f
  4358  073C  2F37               	goto	u1165
  4359  073D                     l2004:
  4360  073D  1FB1               	btfss	___flmul@grs+3,7
  4361  073E  2F40               	goto	u1171
  4362  073F  2F41               	goto	u1170
  4363  0740                     u1171:
  4364  0740  2F42               	goto	l2008
  4365  0741                     u1170:
  4366  0741                     l2006:
  4367  0741  1434               	bsf	___flmul@prod,0
  4368  0742                     l2008:
  4369  0742  3001               	movlw	1
  4370  0743                     u1185:
  4371  0743  35AE               	lslf	___flmul@grs,f
  4372  0744  0DAF               	rlf	___flmul@grs+1,f
  4373  0745  0DB0               	rlf	___flmul@grs+2,f
  4374  0746  0DB1               	rlf	___flmul@grs+3,f
  4375  0747  0B89               	decfsz	9,f
  4376  0748  2F43               	goto	u1185
  4377  0749                     l2010:
  4378  0749  30FF               	movlw	255
  4379  074A  07B8               	addwf	___flmul@temp,f
  4380  074B  30FF               	movlw	255
  4381  074C  3DB9               	addwfc	___flmul@temp+1,f
  4382  074D                     l2012:
  4383  074D  1FB6               	btfss	___flmul@prod+2,7
  4384  074E  2F50               	goto	u1191
  4385  074F  2F51               	goto	u1190
  4386  0750                     u1191:
  4387  0750  2F36               	goto	l2002
  4388  0751                     u1190:
  4389  0751                     l2014:
  4390  0751  01B2               	clrf	___flmul@aexp
  4391  0752                     l2016:
  4392  0752  1FB1               	btfss	___flmul@grs+3,7
  4393  0753  2F55               	goto	u1201
  4394  0754  2F56               	goto	u1200
  4395  0755                     u1201:
  4396  0755  2F72               	goto	l2024
  4397  0756                     u1200:
  4398  0756                     l2018:
  4399  0756  30FF               	movlw	255
  4400  0757  052E               	andwf	___flmul@grs,w
  4401  0758  00A8               	movwf	??___flmul
  4402  0759  30FF               	movlw	255
  4403  075A  052F               	andwf	___flmul@grs+1,w
  4404  075B  00A9               	movwf	??___flmul+1
  4405  075C  30FF               	movlw	255
  4406  075D  0530               	andwf	___flmul@grs+2,w
  4407  075E  00AA               	movwf	??___flmul+2
  4408  075F  307F               	movlw	127
  4409  0760  0531               	andwf	___flmul@grs+3,w
  4410  0761  00AB               	movwf	??___flmul+3
  4411  0762  082B               	movf	??___flmul+3,w
  4412  0763  042A               	iorwf	??___flmul+2,w
  4413  0764  0429               	iorwf	??___flmul+1,w
  4414  0765  0428               	iorwf	??___flmul,w
  4415  0766  1903               	skipnz
  4416  0767  2F69               	goto	u1211
  4417  0768  2F6A               	goto	u1210
  4418  0769                     u1211:
  4419  0769  2F6D               	goto	l1081
  4420  076A                     u1210:
  4421  076A                     l2020:
  4422  076A  01B2               	clrf	___flmul@aexp
  4423  076B  0AB2               	incf	___flmul@aexp,f
  4424  076C  2F72               	goto	l2024
  4425  076D                     l1081:
  4426  076D  1C34               	btfss	___flmul@prod,0
  4427  076E  2F70               	goto	u1221
  4428  076F  2F71               	goto	u1220
  4429  0770                     u1221:
  4430  0770  2F72               	goto	l2024
  4431  0771                     u1220:
  4432  0771  2F6A               	goto	l2020
  4433  0772                     l2024:
  4434  0772  0832               	movf	___flmul@aexp,w
  4435  0773  1903               	btfsc	3,2
  4436  0774  2F76               	goto	u1231
  4437  0775  2F77               	goto	u1230
  4438  0776                     u1231:
  4439  0776  2F9F               	goto	l2034
  4440  0777                     u1230:
  4441  0777                     l2026:
  4442  0777  3001               	movlw	1
  4443  0778  07B4               	addwf	___flmul@prod,f
  4444  0779  3000               	movlw	0
  4445  077A  3DB5               	addwfc	___flmul@prod+1,f
  4446  077B  3000               	movlw	0
  4447  077C  3DB6               	addwfc	___flmul@prod+2,f
  4448  077D  3000               	movlw	0
  4449  077E  3DB7               	addwfc	___flmul@prod+3,f
  4450  077F                     l2028:
  4451  077F  1C37               	btfss	___flmul@prod+3,0
  4452  0780  2F82               	goto	u1241
  4453  0781  2F83               	goto	u1240
  4454  0782                     u1241:
  4455  0782  2F9F               	goto	l2034
  4456  0783                     u1240:
  4457  0783                     l2030:
  4458  0783  0834               	movf	___flmul@prod,w
  4459  0784  00A8               	movwf	??___flmul
  4460  0785  0835               	movf	___flmul@prod+1,w
  4461  0786  00A9               	movwf	??___flmul+1
  4462  0787  0836               	movf	___flmul@prod+2,w
  4463  0788  00AA               	movwf	??___flmul+2
  4464  0789  0837               	movf	___flmul@prod+3,w
  4465  078A  00AB               	movwf	??___flmul+3
  4466  078B  3001               	movlw	1
  4467  078C  00AC               	movwf	??___flmul+4
  4468  078D                     u1255:
  4469  078D  37AB               	asrf	??___flmul+3,f
  4470  078E  0CAA               	rrf	??___flmul+2,f
  4471  078F  0CA9               	rrf	??___flmul+1,f
  4472  0790  0CA8               	rrf	??___flmul,f
  4473  0791                     u1250:
  4474  0791  0BAC               	decfsz	??___flmul+4,f
  4475  0792  2F8D               	goto	u1255
  4476  0793  082B               	movf	??___flmul+3,w
  4477  0794  00B7               	movwf	___flmul@prod+3
  4478  0795  082A               	movf	??___flmul+2,w
  4479  0796  00B6               	movwf	___flmul@prod+2
  4480  0797  0829               	movf	??___flmul+1,w
  4481  0798  00B5               	movwf	___flmul@prod+1
  4482  0799  0828               	movf	??___flmul,w
  4483  079A  00B4               	movwf	___flmul@prod
  4484  079B                     l2032:
  4485  079B  3001               	movlw	1
  4486  079C  07B8               	addwf	___flmul@temp,f
  4487  079D  3000               	movlw	0
  4488  079E  3DB9               	addwfc	___flmul@temp+1,f
  4489  079F                     l2034:
  4490  079F  0839               	movf	___flmul@temp+1,w
  4491  07A0  3A80               	xorlw	128
  4492  07A1  00A8               	movwf	??___flmul
  4493  07A2  3080               	movlw	128
  4494  07A3  0228               	subwf	??___flmul,w
  4495  07A4  1D03               	skipz
  4496  07A5  2FA8               	goto	u1265
  4497  07A6  30FF               	movlw	255
  4498  07A7  0238               	subwf	___flmul@temp,w
  4499  07A8                     u1265:
  4500  07A8  1C03               	skipc
  4501  07A9  2FAB               	goto	u1261
  4502  07AA  2FAC               	goto	u1260
  4503  07AB                     u1261:
  4504  07AB  2FB6               	goto	l2038
  4505  07AC                     u1260:
  4506  07AC                     l2036:
  4507  07AC  307F               	movlw	127
  4508  07AD  0020               	movlb	0	; select bank0
  4509  07AE  00B7               	movwf	___flmul@prod+3
  4510  07AF  3080               	movlw	128
  4511  07B0  00B6               	movwf	___flmul@prod+2
  4512  07B1  3000               	movlw	0
  4513  07B2  00B5               	movwf	___flmul@prod+1
  4514  07B3  3000               	movlw	0
  4515  07B4  00B4               	movwf	___flmul@prod
  4516  07B5  2FE5               	goto	l1087
  4517  07B6                     l2038:
  4518  07B6  0020               	movlb	0	; select bank0
  4519  07B7  0839               	movf	___flmul@temp+1,w
  4520  07B8  3A80               	xorlw	128
  4521  07B9  00A8               	movwf	??___flmul
  4522  07BA  3080               	movlw	128
  4523  07BB  0228               	subwf	??___flmul,w
  4524  07BC  1D03               	skipz
  4525  07BD  2FC0               	goto	u1275
  4526  07BE  3001               	movlw	1
  4527  07BF  0238               	subwf	___flmul@temp,w
  4528  07C0                     u1275:
  4529  07C0  1803               	skipnc
  4530  07C1  2FC3               	goto	u1271
  4531  07C2  2FC4               	goto	u1270
  4532  07C3                     u1271:
  4533  07C3  2FCF               	goto	l2044
  4534  07C4                     u1270:
  4535  07C4                     l2040:
  4536  07C4  3000               	movlw	0
  4537  07C5  0020               	movlb	0	; select bank0
  4538  07C6  00B7               	movwf	___flmul@prod+3
  4539  07C7  3000               	movlw	0
  4540  07C8  00B6               	movwf	___flmul@prod+2
  4541  07C9  3000               	movlw	0
  4542  07CA  00B5               	movwf	___flmul@prod+1
  4543  07CB  3000               	movlw	0
  4544  07CC  00B4               	movwf	___flmul@prod
  4545  07CD                     l2042:
  4546  07CD  01AD               	clrf	___flmul@sign
  4547  07CE  2FE5               	goto	l1087
  4548  07CF                     l2044:
  4549  07CF  0020               	movlb	0	; select bank0
  4550  07D0  0838               	movf	___flmul@temp,w
  4551  07D1  00A8               	movwf	??___flmul
  4552  07D2  0828               	movf	??___flmul,w
  4553  07D3  00B3               	movwf	___flmul@bexp
  4554  07D4  30FF               	movlw	255
  4555  07D5  05B4               	andwf	___flmul@prod,f
  4556  07D6  30FF               	movlw	255
  4557  07D7  05B5               	andwf	___flmul@prod+1,f
  4558  07D8  307F               	movlw	127
  4559  07D9  05B6               	andwf	___flmul@prod+2,f
  4560  07DA  3000               	movlw	0
  4561  07DB  05B7               	andwf	___flmul@prod+3,f
  4562  07DC                     l2046:
  4563  07DC  1C33               	btfss	___flmul@bexp,0
  4564  07DD  2FDF               	goto	u1281
  4565  07DE  2FE0               	goto	u1280
  4566  07DF                     u1281:
  4567  07DF  2FE1               	goto	l2050
  4568  07E0                     u1280:
  4569  07E0                     l2048:
  4570  07E0  17B6               	bsf	___flmul@prod+2,7
  4571  07E1                     l2050:
  4572  07E1  3633               	lsrf	___flmul@bexp,w
  4573  07E2  00A8               	movwf	??___flmul
  4574  07E3  0828               	movf	??___flmul,w
  4575  07E4  00B7               	movwf	___flmul@prod+3
  4576  07E5                     l1087:
  4577  07E5  082D               	movf	___flmul@sign,w
  4578  07E6  00A8               	movwf	??___flmul
  4579  07E7  0828               	movf	??___flmul,w
  4580  07E8  04B7               	iorwf	___flmul@prod+3,f
  4581  07E9                     l2052:
  4582  07E9  0837               	movf	___flmul@prod+3,w
  4583  07EA  00A3               	movwf	?___flmul+3
  4584  07EB  0836               	movf	___flmul@prod+2,w
  4585  07EC  00A2               	movwf	?___flmul+2
  4586  07ED  0835               	movf	___flmul@prod+1,w
  4587  07EE  00A1               	movwf	?___flmul+1
  4588  07EF  0834               	movf	___flmul@prod,w
  4589  07F0  00A0               	movwf	?___flmul
  4590  07F1                     l1075:
  4591  07F1  0008               	return
  4592  07F2                     __end_of___flmul:
  4593                           
  4594                           	psect	text21
  4595  018F                     __ptext21:	
  4596 ;; *************** function __Umul8_16 *****************
  4597 ;; Defined at:
  4598 ;;		line 4 in file "C:\Program Files\Microchip\xc8\v2.32\pic\sources\c99\common\Umul8_16.c"
  4599 ;; Parameters:    Size  Location     Type
  4600 ;;  multiplier      1    wreg     unsigned char 
  4601 ;;  multiplicand    1    0[COMMON] unsigned char 
  4602 ;; Auto vars:     Size  Location     Type
  4603 ;;  multiplier      1    8[COMMON] unsigned char 
  4604 ;;  word_mpld       2    6[COMMON] unsigned int 
  4605 ;;  product         2    4[COMMON] unsigned int 
  4606 ;; Return value:  Size  Location     Type
  4607 ;;                  2    0[COMMON] unsigned int 
  4608 ;; Registers used:
  4609 ;;		wreg, status,2, status,0
  4610 ;; Tracked objects:
  4611 ;;		On entry : 0/0
  4612 ;;		On exit  : 0/0
  4613 ;;		Unchanged: 0/0
  4614 ;; Data sizes:     COMMON   BANK0   BANK1   BANK2   BANK3   BANK4
  4615 ;;      Params:         2       0       0       0       0       0
  4616 ;;      Locals:         5       0       0       0       0       0
  4617 ;;      Temps:          2       0       0       0       0       0
  4618 ;;      Totals:         9       0       0       0       0       0
  4619 ;;Total ram usage:        9 bytes
  4620 ;; Hardware stack levels used: 1
  4621 ;; This function calls:
  4622 ;;		Nothing
  4623 ;; This function is called by:
  4624 ;;		___flmul
  4625 ;; This function uses a non-reentrant model
  4626 ;;
  4627                           
  4628                           
  4629                           ;psect for function __Umul8_16
  4630  018F                     __Umul8_16:
  4631                           
  4632                           ;incstack = 0
  4633                           ; Regs used in __Umul8_16: [wreg+status,2+status,0]
  4634                           ;__Umul8_16@multiplier stored from wreg
  4635  018F  00F8               	movwf	__Umul8_16@multiplier
  4636  0190                     l1774:
  4637  0190  01F4               	clrf	__Umul8_16@product
  4638  0191  01F5               	clrf	__Umul8_16@product+1
  4639  0192                     l1776:
  4640  0192  0870               	movf	__Umul8_16@multiplicand,w
  4641  0193  00F2               	movwf	??__Umul8_16
  4642  0194  01F3               	clrf	??__Umul8_16+1
  4643  0195  0872               	movf	??__Umul8_16,w
  4644  0196  00F6               	movwf	__Umul8_16@word_mpld
  4645  0197  0873               	movf	??__Umul8_16+1,w
  4646  0198  00F7               	movwf	__Umul8_16@word_mpld+1
  4647  0199                     l1778:
  4648  0199  1C78               	btfss	__Umul8_16@multiplier,0
  4649  019A  299C               	goto	u761
  4650  019B  299D               	goto	u760
  4651  019C                     u761:
  4652  019C  29A1               	goto	l1094
  4653  019D                     u760:
  4654  019D                     l1780:
  4655  019D  0876               	movf	__Umul8_16@word_mpld,w
  4656  019E  07F4               	addwf	__Umul8_16@product,f
  4657  019F  0877               	movf	__Umul8_16@word_mpld+1,w
  4658  01A0  3DF5               	addwfc	__Umul8_16@product+1,f
  4659  01A1                     l1094:
  4660  01A1  3001               	movlw	1
  4661  01A2                     u775:
  4662  01A2  35F6               	lslf	__Umul8_16@word_mpld,f
  4663  01A3  0DF7               	rlf	__Umul8_16@word_mpld+1,f
  4664  01A4  0B89               	decfsz	9,f
  4665  01A5  29A2               	goto	u775
  4666  01A6  1003               	clrc
  4667  01A7  0CF8               	rrf	__Umul8_16@multiplier,f
  4668  01A8                     l1782:
  4669  01A8  0878               	movf	__Umul8_16@multiplier,w
  4670  01A9  1D03               	btfss	3,2
  4671  01AA  29AC               	goto	u781
  4672  01AB  29AD               	goto	u780
  4673  01AC                     u781:
  4674  01AC  2999               	goto	l1778
  4675  01AD                     u780:
  4676  01AD                     l1784:
  4677  01AD  0875               	movf	__Umul8_16@product+1,w
  4678  01AE  00F1               	movwf	?__Umul8_16+1
  4679  01AF  0874               	movf	__Umul8_16@product,w
  4680  01B0  00F0               	movwf	?__Umul8_16
  4681  01B1                     l1096:
  4682  01B1  0008               	return
  4683  01B2                     __end_of__Umul8_16:
  4684                           
  4685                           	psect	text22
  4686  02AF                     __ptext22:	
  4687 ;; *************** function _Ds_Iniciar_displays *****************
  4688 ;; Defined at:
  4689 ;;		line 5 in file "displays.c"
  4690 ;; Parameters:    Size  Location     Type
  4691 ;;  dsp             1    wreg     PTR struct Ds_Display
  4692 ;;		 -> main@My_Display(8), 
  4693 ;;  d1              1    0[COMMON] unsigned char 
  4694 ;;  d2              1    1[COMMON] unsigned char 
  4695 ;;  d3              1    2[COMMON] unsigned char 
  4696 ;;  tE              1    3[COMMON] unsigned char 
  4697 ;;  tA              1    4[COMMON] unsigned char 
  4698 ;; Auto vars:     Size  Location     Type
  4699 ;;  dsp             1    6[COMMON] PTR struct Ds_Display
  4700 ;;		 -> main@My_Display(8), 
  4701 ;; Return value:  Size  Location     Type
  4702 ;;                  1    wreg      void 
  4703 ;; Registers used:
  4704 ;;		wreg, fsr1l, fsr1h, status,2, status,0
  4705 ;; Tracked objects:
  4706 ;;		On entry : 0/0
  4707 ;;		On exit  : 0/0
  4708 ;;		Unchanged: 0/0
  4709 ;; Data sizes:     COMMON   BANK0   BANK1   BANK2   BANK3   BANK4
  4710 ;;      Params:         5       0       0       0       0       0
  4711 ;;      Locals:         1       0       0       0       0       0
  4712 ;;      Temps:          1       0       0       0       0       0
  4713 ;;      Totals:         7       0       0       0       0       0
  4714 ;;Total ram usage:        7 bytes
  4715 ;; Hardware stack levels used: 1
  4716 ;; This function calls:
  4717 ;;		Nothing
  4718 ;; This function is called by:
  4719 ;;		_main
  4720 ;; This function uses a non-reentrant model
  4721 ;;
  4722                           
  4723                           
  4724                           ;psect for function _Ds_Iniciar_displays
  4725  02AF                     _Ds_Iniciar_displays:
  4726                           
  4727                           ;incstack = 0
  4728                           ; Regs used in _Ds_Iniciar_displays: [wreg+fsr1l+fsr1h+status,2+status,0]
  4729                           ;Ds_Iniciar_displays@dsp stored from wreg
  4730  02AF  00F6               	movwf	Ds_Iniciar_displays@dsp
  4731  02B0                     l2118:
  4732                           
  4733                           ;displays.c: 6:     dsp->estados=1;
  4734  02B0  0876               	movf	Ds_Iniciar_displays@dsp,w
  4735  02B1  0086               	movwf	6
  4736  02B2  0187               	clrf	7
  4737  02B3  0181               	clrf	1
  4738  02B4  0A81               	incf	1,f
  4739                           
  4740                           ;displays.c: 7:     dsp->D1=d1;
  4741  02B5  0870               	movf	Ds_Iniciar_displays@d1,w
  4742  02B6  00F5               	movwf	??_Ds_Iniciar_displays
  4743  02B7  0A76               	incf	Ds_Iniciar_displays@dsp,w
  4744  02B8  0086               	movwf	6
  4745  02B9  0187               	clrf	7
  4746  02BA  0875               	movf	??_Ds_Iniciar_displays,w
  4747  02BB  0081               	movwf	1
  4748  02BC                     l2120:
  4749                           
  4750                           ;displays.c: 8:     dsp->D2=d2;
  4751  02BC  0871               	movf	Ds_Iniciar_displays@d2,w
  4752  02BD  00F5               	movwf	??_Ds_Iniciar_displays
  4753  02BE  0876               	movf	Ds_Iniciar_displays@dsp,w
  4754  02BF  3E02               	addlw	2
  4755  02C0  0086               	movwf	6
  4756  02C1  0187               	clrf	7
  4757  02C2  0875               	movf	??_Ds_Iniciar_displays,w
  4758  02C3  0081               	movwf	1
  4759  02C4                     l2122:
  4760                           
  4761                           ;displays.c: 9:     dsp->D3=d3;
  4762  02C4  0872               	movf	Ds_Iniciar_displays@d3,w
  4763  02C5  00F5               	movwf	??_Ds_Iniciar_displays
  4764  02C6  0876               	movf	Ds_Iniciar_displays@dsp,w
  4765  02C7  3E03               	addlw	3
  4766  02C8  0086               	movwf	6
  4767  02C9  0187               	clrf	7
  4768  02CA  0875               	movf	??_Ds_Iniciar_displays,w
  4769  02CB  0081               	movwf	1
  4770  02CC                     l2124:
  4771                           
  4772                           ;displays.c: 10:     dsp->tiempoEncendido=tE;
  4773  02CC  0873               	movf	Ds_Iniciar_displays@tE,w
  4774  02CD  00F5               	movwf	??_Ds_Iniciar_displays
  4775  02CE  0876               	movf	Ds_Iniciar_displays@dsp,w
  4776  02CF  3E04               	addlw	4
  4777  02D0  0086               	movwf	6
  4778  02D1  0187               	clrf	7
  4779  02D2  0875               	movf	??_Ds_Iniciar_displays,w
  4780  02D3  0081               	movwf	1
  4781  02D4                     l2126:
  4782                           
  4783                           ;displays.c: 11:     dsp->tiempoApagado=tA;
  4784  02D4  0874               	movf	Ds_Iniciar_displays@tA,w
  4785  02D5  00F5               	movwf	??_Ds_Iniciar_displays
  4786  02D6  0876               	movf	Ds_Iniciar_displays@dsp,w
  4787  02D7  3E05               	addlw	5
  4788  02D8  0086               	movwf	6
  4789  02D9  0187               	clrf	7
  4790  02DA  0875               	movf	??_Ds_Iniciar_displays,w
  4791  02DB  0081               	movwf	1
  4792  02DC                     l2128:
  4793                           
  4794                           ;displays.c: 12:     dsp->tempE=tE;
  4795  02DC  0873               	movf	Ds_Iniciar_displays@tE,w
  4796  02DD  00F5               	movwf	??_Ds_Iniciar_displays
  4797  02DE  0876               	movf	Ds_Iniciar_displays@dsp,w
  4798  02DF  3E06               	addlw	6
  4799  02E0  0086               	movwf	6
  4800  02E1  0187               	clrf	7
  4801  02E2  0875               	movf	??_Ds_Iniciar_displays,w
  4802  02E3  0081               	movwf	1
  4803  02E4                     l2130:
  4804                           
  4805                           ;displays.c: 13:     dsp->tempA=tA;
  4806  02E4  0874               	movf	Ds_Iniciar_displays@tA,w
  4807  02E5  00F5               	movwf	??_Ds_Iniciar_displays
  4808  02E6  0876               	movf	Ds_Iniciar_displays@dsp,w
  4809  02E7  3E07               	addlw	7
  4810  02E8  0086               	movwf	6
  4811  02E9  0187               	clrf	7
  4812  02EA  0875               	movf	??_Ds_Iniciar_displays,w
  4813  02EB  0081               	movwf	1
  4814  02EC                     l298:
  4815  02EC  0008               	return
  4816  02ED                     __end_of_Ds_Iniciar_displays:
  4817                           
  4818                           	psect	text23
  4819  01D5                     __ptext23:	
  4820 ;; *************** function _Ds_Encienda_Disp *****************
  4821 ;; Defined at:
  4822 ;;		line 16 in file "displays.c"
  4823 ;; Parameters:    Size  Location     Type
  4824 ;;  dispNum         1    wreg     unsigned char 
  4825 ;; Auto vars:     Size  Location     Type
  4826 ;;  dispNum         1    2[COMMON] unsigned char 
  4827 ;; Return value:  Size  Location     Type
  4828 ;;                  1    wreg      void 
  4829 ;; Registers used:
  4830 ;;		wreg, fsr0l, fsr0h, status,2, status,0
  4831 ;; Tracked objects:
  4832 ;;		On entry : 0/0
  4833 ;;		On exit  : 0/0
  4834 ;;		Unchanged: 0/0
  4835 ;; Data sizes:     COMMON   BANK0   BANK1   BANK2   BANK3   BANK4
  4836 ;;      Params:         0       0       0       0       0       0
  4837 ;;      Locals:         1       0       0       0       0       0
  4838 ;;      Temps:          2       0       0       0       0       0
  4839 ;;      Totals:         3       0       0       0       0       0
  4840 ;;Total ram usage:        3 bytes
  4841 ;; Hardware stack levels used: 1
  4842 ;; This function calls:
  4843 ;;		Nothing
  4844 ;; This function is called by:
  4845 ;;		_main
  4846 ;;		_Ds_Procese_displays
  4847 ;; This function uses a non-reentrant model
  4848 ;;
  4849                           
  4850                           
  4851                           ;psect for function _Ds_Encienda_Disp
  4852  01D5                     _Ds_Encienda_Disp:
  4853                           
  4854                           ;incstack = 0
  4855                           ; Regs used in _Ds_Encienda_Disp: [wreg-fsr0h+status,2+status,0]
  4856                           ;Ds_Encienda_Disp@dispNum stored from wreg
  4857  01D5  00F2               	movwf	Ds_Encienda_Disp@dispNum
  4858  01D6                     l2160:
  4859                           
  4860                           ;displays.c: 17:  switch (dispNum){
  4861  01D6  29EB               	goto	l2164
  4862  01D7                     l303:	
  4863                           ;displays.c: 19:   do { LATBbits.LATB0 = 0; } while(0);
  4864                           
  4865  01D7  0022               	movlb	2	; select bank2
  4866  01D8  100D               	bcf	13,0	;volatile
  4867  01D9                     l305:	
  4868                           ;displays.c: 20:   do { LATBbits.LATB3 = 0; } while(0);
  4869                           
  4870  01D9  118D               	bcf	13,3	;volatile
  4871  01DA                     l307:	
  4872                           ;displays.c: 21:   do { LATBbits.LATB5 = 0; } while(0);
  4873                           
  4874  01DA  128D               	bcf	13,5	;volatile
  4875  01DB  2A01               	goto	l331
  4876  01DC                     l311:	
  4877                           ;displays.c: 25:   do { LATBbits.LATB0 = 1; } while(0);
  4878                           
  4879  01DC  0022               	movlb	2	; select bank2
  4880  01DD  140D               	bsf	13,0	;volatile
  4881  01DE                     l313:	
  4882                           ;displays.c: 26:   do { LATBbits.LATB3 = 0; } while(0);
  4883                           
  4884  01DE  118D               	bcf	13,3	;volatile
  4885  01DF                     l315:	
  4886                           ;displays.c: 27:   do { LATBbits.LATB5 = 0; } while(0);
  4887                           
  4888  01DF  128D               	bcf	13,5	;volatile
  4889  01E0  2A01               	goto	l331
  4890  01E1                     l318:	
  4891                           ;displays.c: 31:   do { LATBbits.LATB0 = 0; } while(0);
  4892                           
  4893  01E1  0022               	movlb	2	; select bank2
  4894  01E2  100D               	bcf	13,0	;volatile
  4895  01E3                     l320:	
  4896                           ;displays.c: 32:   do { LATBbits.LATB3 = 1; } while(0);
  4897                           
  4898  01E3  158D               	bsf	13,3	;volatile
  4899  01E4                     l322:	
  4900                           ;displays.c: 33:   do { LATBbits.LATB5 = 0; } while(0);
  4901                           
  4902  01E4  128D               	bcf	13,5	;volatile
  4903  01E5  2A01               	goto	l331
  4904  01E6                     l325:	
  4905                           ;displays.c: 37:   do { LATBbits.LATB0 = 0; } while(0);
  4906                           
  4907  01E6  0022               	movlb	2	; select bank2
  4908  01E7  100D               	bcf	13,0	;volatile
  4909  01E8                     l327:	
  4910                           ;displays.c: 38:   do { LATBbits.LATB3 = 0; } while(0);
  4911                           
  4912  01E8  118D               	bcf	13,3	;volatile
  4913  01E9                     l329:	
  4914                           ;displays.c: 39:   do { LATBbits.LATB5 = 1; } while(0);
  4915                           
  4916  01E9  168D               	bsf	13,5	;volatile
  4917  01EA  2A01               	goto	l331
  4918  01EB                     l2164:
  4919  01EB  0872               	movf	Ds_Encienda_Disp@dispNum,w
  4920  01EC  00F0               	movwf	??_Ds_Encienda_Disp
  4921  01ED  01F1               	clrf	??_Ds_Encienda_Disp+1
  4922                           
  4923                           ; Switch on 2 bytes has been partitioned into a top level switch of size 1, and 1 sub-sw
      +                          itches
  4924                           ; Switch size 1, requested type "simple"
  4925                           ; Number of cases is 1, Range of values is 0 to 0
  4926                           ; switch strategies available:
  4927                           ; Name         Instructions Cycles
  4928                           ; simple_byte            4     3 (average)
  4929                           ; direct_byte            8     6 (fixed)
  4930                           ; jumptable            260     6 (fixed)
  4931                           ;	Chosen strategy is simple_byte
  4932  01EE  0871               	movf	??_Ds_Encienda_Disp+1,w
  4933  01EF  3A00               	xorlw	0	; case 0
  4934  01F0  1903               	skipnz
  4935  01F1  29F3               	goto	l2330
  4936  01F2  2A01               	goto	l331
  4937  01F3                     l2330:
  4938                           
  4939                           ; Switch size 1, requested type "simple"
  4940                           ; Number of cases is 4, Range of values is 0 to 3
  4941                           ; switch strategies available:
  4942                           ; Name         Instructions Cycles
  4943                           ; simple_byte           13     7 (average)
  4944                           ; direct_byte           14     6 (fixed)
  4945                           ; jumptable            260     6 (fixed)
  4946                           ;	Chosen strategy is simple_byte
  4947  01F3  0870               	movf	??_Ds_Encienda_Disp,w
  4948  01F4  3A00               	xorlw	0	; case 0
  4949  01F5  1903               	skipnz
  4950  01F6  29D7               	goto	l303
  4951  01F7  3A01               	xorlw	1	; case 1
  4952  01F8  1903               	skipnz
  4953  01F9  29DC               	goto	l311
  4954  01FA  3A03               	xorlw	3	; case 2
  4955  01FB  1903               	skipnz
  4956  01FC  29E1               	goto	l318
  4957  01FD  3A01               	xorlw	1	; case 3
  4958  01FE  1903               	skipnz
  4959  01FF  29E6               	goto	l325
  4960  0200  2A01               	goto	l331
  4961  0201                     l331:
  4962  0201  0008               	return
  4963  0202                     __end_of_Ds_Encienda_Disp:
  4964                           
  4965                           	psect	text24
  4966  03BA                     __ptext24:	
  4967 ;; *************** function _Ds_BCD *****************
  4968 ;; Defined at:
  4969 ;;		line 48 in file "displays.c"
  4970 ;; Parameters:    Size  Location     Type
  4971 ;;  digito          1    wreg     unsigned char 
  4972 ;; Auto vars:     Size  Location     Type
  4973 ;;  digito          1    2[COMMON] unsigned char 
  4974 ;; Return value:  Size  Location     Type
  4975 ;;                  1    wreg      void 
  4976 ;; Registers used:
  4977 ;;		wreg, fsr0l, fsr0h, status,2, status,0
  4978 ;; Tracked objects:
  4979 ;;		On entry : 0/0
  4980 ;;		On exit  : 0/0
  4981 ;;		Unchanged: 0/0
  4982 ;; Data sizes:     COMMON   BANK0   BANK1   BANK2   BANK3   BANK4
  4983 ;;      Params:         0       0       0       0       0       0
  4984 ;;      Locals:         1       0       0       0       0       0
  4985 ;;      Temps:          2       0       0       0       0       0
  4986 ;;      Totals:         3       0       0       0       0       0
  4987 ;;Total ram usage:        3 bytes
  4988 ;; Hardware stack levels used: 1
  4989 ;; This function calls:
  4990 ;;		Nothing
  4991 ;; This function is called by:
  4992 ;;		_main
  4993 ;;		_Ds_Procese_displays
  4994 ;; This function uses a non-reentrant model
  4995 ;;
  4996                           
  4997                           
  4998                           ;psect for function _Ds_BCD
  4999  03BA                     _Ds_BCD:
  5000                           
  5001                           ;incstack = 0
  5002                           ; Regs used in _Ds_BCD: [wreg-fsr0h+status,2+status,0]
  5003                           ;Ds_BCD@digito stored from wreg
  5004  03BA  00F2               	movwf	Ds_BCD@digito
  5005  03BB                     l2150:
  5006                           
  5007                           ;displays.c: 49:  switch (digito){
  5008  03BB  2C1F               	goto	l2154
  5009  03BC                     l336:	
  5010                           ;displays.c: 52:   do { LATAbits.LATA0 = 1; } while(0);
  5011                           
  5012  03BC  0022               	movlb	2	; select bank2
  5013  03BD  140C               	bsf	12,0	;volatile
  5014  03BE                     l338:	
  5015                           ;displays.c: 53:   do { LATAbits.LATA1 = 1; } while(0);
  5016                           
  5017  03BE  148C               	bsf	12,1	;volatile
  5018  03BF                     l340:	
  5019                           ;displays.c: 54:   do { LATAbits.LATA2 = 1; } while(0);
  5020                           
  5021  03BF  150C               	bsf	12,2	;volatile
  5022  03C0                     l342:	
  5023                           ;displays.c: 55:   do { LATAbits.LATA3 = 1; } while(0);
  5024                           
  5025  03C0  158C               	bsf	12,3	;volatile
  5026  03C1                     l344:	
  5027                           ;displays.c: 56:   do { LATAbits.LATA4 = 1; } while(0);
  5028                           
  5029  03C1  160C               	bsf	12,4	;volatile
  5030  03C2                     l346:	
  5031                           ;displays.c: 57:   do { LATAbits.LATA6 = 1; } while(0);
  5032                           
  5033  03C2  170C               	bsf	12,6	;volatile
  5034  03C3                     l348:	
  5035                           ;displays.c: 58:   do { LATAbits.LATA7 = 0; } while(0);
  5036                           
  5037  03C3  138C               	bcf	12,7	;volatile
  5038  03C4  2C4A               	goto	l501
  5039  03C5                     l352:	
  5040                           ;displays.c: 63:   do { LATAbits.LATA0 = 0; } while(0);
  5041                           
  5042  03C5  0022               	movlb	2	; select bank2
  5043  03C6  100C               	bcf	12,0	;volatile
  5044  03C7                     l354:	
  5045                           ;displays.c: 64:   do { LATAbits.LATA1 = 1; } while(0);
  5046                           
  5047  03C7  148C               	bsf	12,1	;volatile
  5048  03C8                     l356:	
  5049                           ;displays.c: 65:   do { LATAbits.LATA2 = 1; } while(0);
  5050                           
  5051  03C8  150C               	bsf	12,2	;volatile
  5052  03C9                     l358:	
  5053                           ;displays.c: 66:   do { LATAbits.LATA3 = 0; } while(0);
  5054                           
  5055  03C9  118C               	bcf	12,3	;volatile
  5056  03CA                     l360:	
  5057                           ;displays.c: 67:   do { LATAbits.LATA4 = 0; } while(0);
  5058                           
  5059  03CA  120C               	bcf	12,4	;volatile
  5060  03CB                     l362:	
  5061                           ;displays.c: 68:   do { LATAbits.LATA6 = 0; } while(0);
  5062                           
  5063  03CB  130C               	bcf	12,6	;volatile
  5064  03CC                     l364:	
  5065                           ;displays.c: 69:   do { LATAbits.LATA7 = 0; } while(0);
  5066                           
  5067  03CC  138C               	bcf	12,7	;volatile
  5068  03CD  2C4A               	goto	l501
  5069  03CE                     l367:	
  5070                           ;displays.c: 74:   do { LATAbits.LATA0 = 1; } while(0);
  5071                           
  5072  03CE  0022               	movlb	2	; select bank2
  5073  03CF  140C               	bsf	12,0	;volatile
  5074  03D0                     l369:	
  5075                           ;displays.c: 75:   do { LATAbits.LATA1 = 1; } while(0);
  5076                           
  5077  03D0  148C               	bsf	12,1	;volatile
  5078  03D1                     l371:	
  5079                           ;displays.c: 76:   do { LATAbits.LATA2 = 0; } while(0);
  5080                           
  5081  03D1  110C               	bcf	12,2	;volatile
  5082  03D2                     l373:	
  5083                           ;displays.c: 77:   do { LATAbits.LATA3 = 1; } while(0);
  5084                           
  5085  03D2  158C               	bsf	12,3	;volatile
  5086  03D3                     l375:	
  5087                           ;displays.c: 78:   do { LATAbits.LATA4 = 1; } while(0);
  5088                           
  5089  03D3  160C               	bsf	12,4	;volatile
  5090  03D4                     l377:	
  5091                           ;displays.c: 79:   do { LATAbits.LATA6 = 0; } while(0);
  5092                           
  5093  03D4  130C               	bcf	12,6	;volatile
  5094  03D5                     l379:	
  5095                           ;displays.c: 80:   do { LATAbits.LATA7 = 1; } while(0);
  5096                           
  5097  03D5  178C               	bsf	12,7	;volatile
  5098  03D6  2C4A               	goto	l501
  5099  03D7                     l382:	
  5100                           ;displays.c: 85:   do { LATAbits.LATA0 = 1; } while(0);
  5101                           
  5102  03D7  0022               	movlb	2	; select bank2
  5103  03D8  140C               	bsf	12,0	;volatile
  5104  03D9                     l384:	
  5105                           ;displays.c: 86:   do { LATAbits.LATA1 = 1; } while(0);
  5106                           
  5107  03D9  148C               	bsf	12,1	;volatile
  5108  03DA                     l386:	
  5109                           ;displays.c: 87:   do { LATAbits.LATA2 = 1; } while(0);
  5110                           
  5111  03DA  150C               	bsf	12,2	;volatile
  5112  03DB                     l388:	
  5113                           ;displays.c: 88:   do { LATAbits.LATA3 = 1; } while(0);
  5114                           
  5115  03DB  158C               	bsf	12,3	;volatile
  5116  03DC                     l390:	
  5117                           ;displays.c: 89:   do { LATAbits.LATA4 = 0; } while(0);
  5118                           
  5119  03DC  120C               	bcf	12,4	;volatile
  5120  03DD                     l392:	
  5121                           ;displays.c: 90:   do { LATAbits.LATA6 = 0; } while(0);
  5122                           
  5123  03DD  130C               	bcf	12,6	;volatile
  5124  03DE                     l394:	
  5125                           ;displays.c: 91:   do { LATAbits.LATA7 = 1; } while(0);
  5126                           
  5127  03DE  178C               	bsf	12,7	;volatile
  5128  03DF  2C4A               	goto	l501
  5129  03E0                     l397:	
  5130                           ;displays.c: 96:   do { LATAbits.LATA0 = 0; } while(0);
  5131                           
  5132  03E0  0022               	movlb	2	; select bank2
  5133  03E1  100C               	bcf	12,0	;volatile
  5134  03E2                     l399:	
  5135                           ;displays.c: 97:   do { LATAbits.LATA1 = 1; } while(0);
  5136                           
  5137  03E2  148C               	bsf	12,1	;volatile
  5138  03E3                     l401:	
  5139                           ;displays.c: 98:   do { LATAbits.LATA2 = 1; } while(0);
  5140                           
  5141  03E3  150C               	bsf	12,2	;volatile
  5142  03E4                     l403:	
  5143                           ;displays.c: 99:   do { LATAbits.LATA3 = 0; } while(0);
  5144                           
  5145  03E4  118C               	bcf	12,3	;volatile
  5146  03E5                     l405:	
  5147                           ;displays.c: 100:   do { LATAbits.LATA4 = 0; } while(0);
  5148                           
  5149  03E5  120C               	bcf	12,4	;volatile
  5150  03E6                     l407:	
  5151                           ;displays.c: 101:   do { LATAbits.LATA6 = 1; } while(0);
  5152                           
  5153  03E6  170C               	bsf	12,6	;volatile
  5154  03E7                     l409:	
  5155                           ;displays.c: 102:   do { LATAbits.LATA7 = 1; } while(0);
  5156                           
  5157  03E7  178C               	bsf	12,7	;volatile
  5158  03E8  2C4A               	goto	l501
  5159  03E9                     l412:	
  5160                           ;displays.c: 107:   do { LATAbits.LATA0 = 1; } while(0);
  5161                           
  5162  03E9  0022               	movlb	2	; select bank2
  5163  03EA  140C               	bsf	12,0	;volatile
  5164  03EB                     l414:	
  5165                           ;displays.c: 108:   do { LATAbits.LATA1 = 0; } while(0);
  5166                           
  5167  03EB  108C               	bcf	12,1	;volatile
  5168  03EC                     l416:	
  5169                           ;displays.c: 109:   do { LATAbits.LATA2 = 1; } while(0);
  5170                           
  5171  03EC  150C               	bsf	12,2	;volatile
  5172  03ED                     l418:	
  5173                           ;displays.c: 110:   do { LATAbits.LATA3 = 1; } while(0);
  5174                           
  5175  03ED  158C               	bsf	12,3	;volatile
  5176  03EE                     l420:	
  5177                           ;displays.c: 111:   do { LATAbits.LATA4 = 0; } while(0);
  5178                           
  5179  03EE  120C               	bcf	12,4	;volatile
  5180  03EF                     l422:	
  5181                           ;displays.c: 112:   do { LATAbits.LATA6 = 1; } while(0);
  5182                           
  5183  03EF  170C               	bsf	12,6	;volatile
  5184  03F0                     l424:	
  5185                           ;displays.c: 113:   do { LATAbits.LATA7 = 1; } while(0);
  5186                           
  5187  03F0  178C               	bsf	12,7	;volatile
  5188  03F1  2C4A               	goto	l501
  5189  03F2                     l427:	
  5190                           ;displays.c: 118:   do { LATAbits.LATA0 = 1; } while(0);
  5191                           
  5192  03F2  0022               	movlb	2	; select bank2
  5193  03F3  140C               	bsf	12,0	;volatile
  5194  03F4                     l429:	
  5195                           ;displays.c: 119:   do { LATAbits.LATA1 = 0; } while(0);
  5196                           
  5197  03F4  108C               	bcf	12,1	;volatile
  5198  03F5                     l431:	
  5199                           ;displays.c: 120:   do { LATAbits.LATA2 = 1; } while(0);
  5200                           
  5201  03F5  150C               	bsf	12,2	;volatile
  5202  03F6                     l433:	
  5203                           ;displays.c: 121:   do { LATAbits.LATA3 = 1; } while(0);
  5204                           
  5205  03F6  158C               	bsf	12,3	;volatile
  5206  03F7                     l435:	
  5207                           ;displays.c: 122:   do { LATAbits.LATA4 = 1; } while(0);
  5208                           
  5209  03F7  160C               	bsf	12,4	;volatile
  5210  03F8                     l437:	
  5211                           ;displays.c: 123:   do { LATAbits.LATA6 = 1; } while(0);
  5212                           
  5213  03F8  170C               	bsf	12,6	;volatile
  5214  03F9                     l439:	
  5215                           ;displays.c: 124:   do { LATAbits.LATA7 = 1; } while(0);
  5216                           
  5217  03F9  178C               	bsf	12,7	;volatile
  5218  03FA  2C4A               	goto	l501
  5219  03FB                     l442:	
  5220                           ;displays.c: 129:   do { LATAbits.LATA0 = 1; } while(0);
  5221                           
  5222  03FB  0022               	movlb	2	; select bank2
  5223  03FC  140C               	bsf	12,0	;volatile
  5224  03FD                     l444:	
  5225                           ;displays.c: 130:   do { LATAbits.LATA1 = 1; } while(0);
  5226                           
  5227  03FD  148C               	bsf	12,1	;volatile
  5228  03FE                     l446:	
  5229                           ;displays.c: 131:   do { LATAbits.LATA2 = 1; } while(0);
  5230                           
  5231  03FE  150C               	bsf	12,2	;volatile
  5232  03FF                     l448:	
  5233                           ;displays.c: 132:   do { LATAbits.LATA3 = 0; } while(0);
  5234                           
  5235  03FF  118C               	bcf	12,3	;volatile
  5236  0400                     l450:	
  5237                           ;displays.c: 133:   do { LATAbits.LATA4 = 0; } while(0);
  5238                           
  5239  0400  120C               	bcf	12,4	;volatile
  5240  0401                     l452:	
  5241                           ;displays.c: 134:   do { LATAbits.LATA6 = 1; } while(0);
  5242                           
  5243  0401  170C               	bsf	12,6	;volatile
  5244  0402                     l454:	
  5245                           ;displays.c: 135:   do { LATAbits.LATA7 = 0; } while(0);
  5246                           
  5247  0402  138C               	bcf	12,7	;volatile
  5248  0403  2C4A               	goto	l501
  5249  0404                     l457:	
  5250                           ;displays.c: 140:   do { LATAbits.LATA0 = 1; } while(0);
  5251                           
  5252  0404  0022               	movlb	2	; select bank2
  5253  0405  140C               	bsf	12,0	;volatile
  5254  0406                     l459:	
  5255                           ;displays.c: 141:   do { LATAbits.LATA1 = 1; } while(0);
  5256                           
  5257  0406  148C               	bsf	12,1	;volatile
  5258  0407                     l461:	
  5259                           ;displays.c: 142:   do { LATAbits.LATA2 = 1; } while(0);
  5260                           
  5261  0407  150C               	bsf	12,2	;volatile
  5262  0408                     l463:	
  5263                           ;displays.c: 143:   do { LATAbits.LATA3 = 1; } while(0);
  5264                           
  5265  0408  158C               	bsf	12,3	;volatile
  5266  0409                     l465:	
  5267                           ;displays.c: 144:   do { LATAbits.LATA4 = 1; } while(0);
  5268                           
  5269  0409  160C               	bsf	12,4	;volatile
  5270  040A                     l467:	
  5271                           ;displays.c: 145:   do { LATAbits.LATA6 = 1; } while(0);
  5272                           
  5273  040A  170C               	bsf	12,6	;volatile
  5274  040B                     l469:	
  5275                           ;displays.c: 146:   do { LATAbits.LATA7 = 1; } while(0);
  5276                           
  5277  040B  178C               	bsf	12,7	;volatile
  5278  040C  2C4A               	goto	l501
  5279  040D                     l472:	
  5280                           ;displays.c: 151:   do { LATAbits.LATA0 = 1; } while(0);
  5281                           
  5282  040D  0022               	movlb	2	; select bank2
  5283  040E  140C               	bsf	12,0	;volatile
  5284  040F                     l474:	
  5285                           ;displays.c: 152:   do { LATAbits.LATA1 = 1; } while(0);
  5286                           
  5287  040F  148C               	bsf	12,1	;volatile
  5288  0410                     l476:	
  5289                           ;displays.c: 153:   do { LATAbits.LATA2 = 1; } while(0);
  5290                           
  5291  0410  150C               	bsf	12,2	;volatile
  5292  0411                     l478:	
  5293                           ;displays.c: 154:   do { LATAbits.LATA3 = 0; } while(0);
  5294                           
  5295  0411  118C               	bcf	12,3	;volatile
  5296  0412                     l480:	
  5297                           ;displays.c: 155:   do { LATAbits.LATA4 = 0; } while(0);
  5298                           
  5299  0412  120C               	bcf	12,4	;volatile
  5300  0413                     l482:	
  5301                           ;displays.c: 156:   do { LATAbits.LATA6 = 1; } while(0);
  5302                           
  5303  0413  170C               	bsf	12,6	;volatile
  5304  0414                     l484:	
  5305                           ;displays.c: 157:   do { LATAbits.LATA7 = 1; } while(0);
  5306                           
  5307  0414  178C               	bsf	12,7	;volatile
  5308  0415  2C4A               	goto	l501
  5309  0416                     l487:	
  5310                           ;displays.c: 162:   do { LATAbits.LATA0 = 1; } while(0);
  5311                           
  5312  0416  0022               	movlb	2	; select bank2
  5313  0417  140C               	bsf	12,0	;volatile
  5314  0418                     l489:	
  5315                           ;displays.c: 163:   do { LATAbits.LATA1 = 1; } while(0);
  5316                           
  5317  0418  148C               	bsf	12,1	;volatile
  5318  0419                     l491:	
  5319                           ;displays.c: 164:   do { LATAbits.LATA2 = 1; } while(0);
  5320                           
  5321  0419  150C               	bsf	12,2	;volatile
  5322  041A                     l493:	
  5323                           ;displays.c: 165:   do { LATAbits.LATA3 = 1; } while(0);
  5324                           
  5325  041A  158C               	bsf	12,3	;volatile
  5326  041B                     l495:	
  5327                           ;displays.c: 166:   do { LATAbits.LATA4 = 1; } while(0);
  5328                           
  5329  041B  160C               	bsf	12,4	;volatile
  5330  041C                     l497:	
  5331                           ;displays.c: 167:   do { LATAbits.LATA6 = 1; } while(0);
  5332                           
  5333  041C  170C               	bsf	12,6	;volatile
  5334  041D                     l499:	
  5335                           ;displays.c: 168:   do { LATAbits.LATA7 = 1; } while(0);
  5336                           
  5337  041D  178C               	bsf	12,7	;volatile
  5338  041E  2C4A               	goto	l501
  5339  041F                     l2154:
  5340  041F  0872               	movf	Ds_BCD@digito,w
  5341  0420  00F0               	movwf	??_Ds_BCD
  5342  0421  01F1               	clrf	??_Ds_BCD+1
  5343                           
  5344                           ; Switch on 2 bytes has been partitioned into a top level switch of size 1, and 1 sub-sw
      +                          itches
  5345                           ; Switch size 1, requested type "simple"
  5346                           ; Number of cases is 1, Range of values is 0 to 0
  5347                           ; switch strategies available:
  5348                           ; Name         Instructions Cycles
  5349                           ; simple_byte            4     3 (average)
  5350                           ; direct_byte            8     6 (fixed)
  5351                           ; jumptable            260     6 (fixed)
  5352                           ;	Chosen strategy is simple_byte
  5353  0422  0871               	movf	??_Ds_BCD+1,w
  5354  0423  3A00               	xorlw	0	; case 0
  5355  0424  1903               	skipnz
  5356  0425  2C27               	goto	l2332
  5357  0426  2C4A               	goto	l501
  5358  0427                     l2332:
  5359                           
  5360                           ; Switch size 1, requested type "simple"
  5361                           ; Number of cases is 11, Range of values is 0 to 10
  5362                           ; switch strategies available:
  5363                           ; Name         Instructions Cycles
  5364                           ; direct_byte           28     6 (fixed)
  5365                           ; simple_byte           34    18 (average)
  5366                           ; jumptable            260     6 (fixed)
  5367                           ;	Chosen strategy is simple_byte
  5368  0427  0870               	movf	??_Ds_BCD,w
  5369  0428  3A00               	xorlw	0	; case 0
  5370  0429  1903               	skipnz
  5371  042A  2BBC               	goto	l336
  5372  042B  3A01               	xorlw	1	; case 1
  5373  042C  1903               	skipnz
  5374  042D  2BC5               	goto	l352
  5375  042E  3A03               	xorlw	3	; case 2
  5376  042F  1903               	skipnz
  5377  0430  2BCE               	goto	l367
  5378  0431  3A01               	xorlw	1	; case 3
  5379  0432  1903               	skipnz
  5380  0433  2BD7               	goto	l382
  5381  0434  3A07               	xorlw	7	; case 4
  5382  0435  1903               	skipnz
  5383  0436  2BE0               	goto	l397
  5384  0437  3A01               	xorlw	1	; case 5
  5385  0438  1903               	skipnz
  5386  0439  2BE9               	goto	l412
  5387  043A  3A03               	xorlw	3	; case 6
  5388  043B  1903               	skipnz
  5389  043C  2BF2               	goto	l427
  5390  043D  3A01               	xorlw	1	; case 7
  5391  043E  1903               	skipnz
  5392  043F  2BFB               	goto	l442
  5393  0440  3A0F               	xorlw	15	; case 8
  5394  0441  1903               	skipnz
  5395  0442  2C04               	goto	l457
  5396  0443  3A01               	xorlw	1	; case 9
  5397  0444  1903               	skipnz
  5398  0445  2C0D               	goto	l472
  5399  0446  3A03               	xorlw	3	; case 10
  5400  0447  1903               	skipnz
  5401  0448  2C16               	goto	l487
  5402  0449  2C4A               	goto	l501
  5403  044A                     l501:
  5404  044A  0008               	return
  5405  044B                     __end_of_Ds_BCD:
  5406                           
  5407                           	psect	text25
  5408  00F7                     __ptext25:	
  5409 ;; *************** function _ADC_StartConversion *****************
  5410 ;; Defined at:
  5411 ;;		line 93 in file "adc.c"
  5412 ;; Parameters:    Size  Location     Type
  5413 ;;		None
  5414 ;; Auto vars:     Size  Location     Type
  5415 ;;		None
  5416 ;; Return value:  Size  Location     Type
  5417 ;;                  1    wreg      void 
  5418 ;; Registers used:
  5419 ;;		None
  5420 ;; Tracked objects:
  5421 ;;		On entry : 0/0
  5422 ;;		On exit  : 0/0
  5423 ;;		Unchanged: 0/0
  5424 ;; Data sizes:     COMMON   BANK0   BANK1   BANK2   BANK3   BANK4
  5425 ;;      Params:         0       0       0       0       0       0
  5426 ;;      Locals:         0       0       0       0       0       0
  5427 ;;      Temps:          0       0       0       0       0       0
  5428 ;;      Totals:         0       0       0       0       0       0
  5429 ;;Total ram usage:        0 bytes
  5430 ;; Hardware stack levels used: 1
  5431 ;; This function calls:
  5432 ;;		Nothing
  5433 ;; This function is called by:
  5434 ;;		_main
  5435 ;; This function uses a non-reentrant model
  5436 ;;
  5437                           
  5438                           
  5439                           ;psect for function _ADC_StartConversion
  5440  00F7                     _ADC_StartConversion:
  5441  00F7                     l2100:	
  5442                           ;incstack = 0
  5443                           ; Regs used in _ADC_StartConversion: []
  5444                           
  5445                           
  5446                           ;adc.c: 96:     ADCON0bits.GO_nDONE = 1;
  5447  00F7  0021               	movlb	1	; select bank1
  5448  00F8  149D               	bsf	29,1	;volatile
  5449  00F9                     l23:
  5450  00F9  0008               	return
  5451  00FA                     __end_of_ADC_StartConversion:
  5452                           
  5453                           	psect	text26
  5454  0119                     __ptext26:	
  5455 ;; *************** function _ADC_IsConversionDone *****************
  5456 ;; Defined at:
  5457 ;;		line 100 in file "adc.c"
  5458 ;; Parameters:    Size  Location     Type
  5459 ;;		None
  5460 ;; Auto vars:     Size  Location     Type
  5461 ;;		None
  5462 ;; Return value:  Size  Location     Type
  5463 ;;                  1    wreg      _Bool 
  5464 ;; Registers used:
  5465 ;;		wreg, status,0
  5466 ;; Tracked objects:
  5467 ;;		On entry : 0/0
  5468 ;;		On exit  : 0/0
  5469 ;;		Unchanged: 0/0
  5470 ;; Data sizes:     COMMON   BANK0   BANK1   BANK2   BANK3   BANK4
  5471 ;;      Params:         0       0       0       0       0       0
  5472 ;;      Locals:         0       0       0       0       0       0
  5473 ;;      Temps:          0       0       0       0       0       0
  5474 ;;      Totals:         0       0       0       0       0       0
  5475 ;;Total ram usage:        0 bytes
  5476 ;; Hardware stack levels used: 1
  5477 ;; This function calls:
  5478 ;;		Nothing
  5479 ;; This function is called by:
  5480 ;;		_main
  5481 ;; This function uses a non-reentrant model
  5482 ;;
  5483                           
  5484                           
  5485                           ;psect for function _ADC_IsConversionDone
  5486  0119                     _ADC_IsConversionDone:
  5487  0119                     l2102:	
  5488                           ;incstack = 0
  5489                           ; Regs used in _ADC_IsConversionDone: [wreg+status,0]
  5490                           
  5491                           
  5492                           ;adc.c: 103:    return ((_Bool)(!ADCON0bits.GO_nDONE));
  5493  0119  1003               	clrc
  5494  011A  0021               	movlb	1	; select bank1
  5495  011B  1C9D               	btfss	29,1	;volatile
  5496  011C  1403               	setc
  5497  011D  3000               	movlw	0
  5498  011E  3D09               	addwfc	9,w
  5499  011F                     l26:
  5500  011F  0008               	return
  5501  0120                     __end_of_ADC_IsConversionDone:
  5502                           
  5503                           	psect	text27
  5504  0101                     __ptext27:	
  5505 ;; *************** function _ADC_GetConversionResult *****************
  5506 ;; Defined at:
  5507 ;;		line 106 in file "adc.c"
  5508 ;; Parameters:    Size  Location     Type
  5509 ;;		None
  5510 ;; Auto vars:     Size  Location     Type
  5511 ;;		None
  5512 ;; Return value:  Size  Location     Type
  5513 ;;                  2    0[COMMON] unsigned short 
  5514 ;; Registers used:
  5515 ;;		wreg
  5516 ;; Tracked objects:
  5517 ;;		On entry : 0/0
  5518 ;;		On exit  : 0/0
  5519 ;;		Unchanged: 0/0
  5520 ;; Data sizes:     COMMON   BANK0   BANK1   BANK2   BANK3   BANK4
  5521 ;;      Params:         2       0       0       0       0       0
  5522 ;;      Locals:         0       0       0       0       0       0
  5523 ;;      Temps:          0       0       0       0       0       0
  5524 ;;      Totals:         2       0       0       0       0       0
  5525 ;;Total ram usage:        2 bytes
  5526 ;; Hardware stack levels used: 1
  5527 ;; This function calls:
  5528 ;;		Nothing
  5529 ;; This function is called by:
  5530 ;;		_main
  5531 ;; This function uses a non-reentrant model
  5532 ;;
  5533                           
  5534                           
  5535                           ;psect for function _ADC_GetConversionResult
  5536  0101                     _ADC_GetConversionResult:
  5537  0101                     l2106:	
  5538                           ;incstack = 0
  5539                           ; Regs used in _ADC_GetConversionResult: [wreg]
  5540                           
  5541                           
  5542                           ;adc.c: 109:     return ((adc_result_t)((ADRESH << 8) + ADRESL));
  5543  0101  0021               	movlb	1	; select bank1
  5544  0102  081C               	movf	28,w	;volatile
  5545  0103  00F1               	movwf	?_ADC_GetConversionResult+1
  5546  0104  081B               	movf	27,w	;volatile
  5547  0105  00F0               	movwf	?_ADC_GetConversionResult
  5548  0106                     l29:
  5549  0106  0008               	return
  5550  0107                     __end_of_ADC_GetConversionResult:
  5551  007E                     btemp	set	126	;btemp
  5552  007E                     wtemp0	set	126
  5553                           
  5554                           	psect	config
  5555                           
  5556                           ;Config register CONFIG1 @ 0x8007
  5557                           ;	Oscillator Selection
  5558                           ;	FOSC = INTOSC, INTOSC oscillator: I/O function on CLKIN pin
  5559                           ;	Watchdog Timer Enable
  5560                           ;	WDTE = ON, WDT enabled
  5561                           ;	Power-up Timer Enable
  5562                           ;	PWRTE = OFF, PWRT disabled
  5563                           ;	MCLR Pin Function Select
  5564                           ;	MCLRE = ON, MCLR/VPP pin function is MCLR
  5565                           ;	Flash Program Memory Code Protection
  5566                           ;	CP = OFF, Program memory code protection is disabled
  5567                           ;	Data Memory Code Protection
  5568                           ;	CPD = OFF, Data memory code protection is disabled
  5569                           ;	Brown-out Reset Enable
  5570                           ;	BOREN = ON, Brown-out Reset enabled
  5571                           ;	Clock Out Enable
  5572                           ;	CLKOUTEN = OFF, CLKOUT function is disabled. I/O or oscillator function on the CLKOUT 
      +                          pin
  5573                           ;	Internal/External Switchover
  5574                           ;	IESO = ON, Internal/External Switchover mode is enabled
  5575                           ;	Fail-Safe Clock Monitor Enable
  5576                           ;	FCMEN = ON, Fail-Safe Clock Monitor is enabled
  5577  8007                     	org	32775
  5578  8007  3FFC               	dw	16380
  5579                           
  5580                           ;Config register CONFIG2 @ 0x8008
  5581                           ;	Flash Memory Self-Write Protection
  5582                           ;	WRT = OFF, Write protection off
  5583                           ;	PLL Enable
  5584                           ;	PLLEN = ON, 4x PLL enabled
  5585                           ;	Stack Overflow/Underflow Reset Enable
  5586                           ;	STVREN = ON, Stack Overflow or Underflow will cause a Reset
  5587                           ;	Brown-out Reset Voltage Selection
  5588                           ;	BORV = LO, Brown-out Reset Voltage (Vbor), low trip point selected.
  5589                           ;	Low-Voltage Programming Enable
  5590                           ;	LVP = ON, Low-voltage programming enabled
  5591  8008                     	org	32776
  5592  8008  3FFF               	dw	16383

Data Sizes:
    Strings     0
    Constant    0
    Data        0
    BSS         9
    Persistent  32
    Stack       0

Auto Spaces:
    Space          Size  Autos    Used
    COMMON           14     14      14
    BANK0            80     78      79
    BANK1            80      0       8
    BANK2            80      0       0
    BANK3            80      0       0
    BANK4            48      0       0

Pointer List with Targets:

    ADC_InterruptHandler	PTR FTN()void  size(2) Largest target is 1
		 -> Absolute function(), 

    Ds_Separar_Digito@dsp	PTR struct Ds_Display size(1) Largest target is 8
		 -> main@My_Display(BANK0[8]), 

    Ds_Iniciar_displays@dsp	PTR struct Ds_Display size(1) Largest target is 8
		 -> main@My_Display(BANK0[8]), 

    Tm_Inicie_periodico@ctp	PTR struct Tm_Periodico size(1) Largest target is 9
		 -> main@My_Per_1000ms(BANK0[9]), 

    EUSART_SetErrorHandler@interruptHandler	PTR FTN()void  size(2) Largest target is 1
		 -> EUSART_DefaultErrorHandler(), 

    EUSART_ErrorHandler	PTR FTN()void  size(2) Largest target is 1
		 -> Absolute function(), EUSART_DefaultErrorHandler(), 

    EUSART_SetOverrunErrorHandler@interruptHandler	PTR FTN()void  size(2) Largest target is 1
		 -> EUSART_DefaultOverrunErrorHandler(), 

    EUSART_OverrunErrorHandler	PTR FTN()void  size(2) Largest target is 1
		 -> Absolute function(), EUSART_DefaultOverrunErrorHandler(), 

    EUSART_SetFramingErrorHandler@interruptHandler	PTR FTN()void  size(2) Largest target is 1
		 -> EUSART_DefaultFramingErrorHandler(), 

    EUSART_FramingErrorHandler	PTR FTN()void  size(2) Largest target is 1
		 -> Absolute function(), EUSART_DefaultFramingErrorHandler(), 


Critical Paths under _main in COMMON

    _EUSART_Initialize->_EUSART_SetErrorHandler
    _EUSART_Initialize->_EUSART_SetFramingErrorHandler
    _EUSART_Initialize->_EUSART_SetOverrunErrorHandler
    _Ds_Separar_Digito->___lwdiv
    _Ds_Regla_de_3->___xxtofl
    ___fltol->___xxtofl
    ___flmul->___xxtofl

Critical Paths under _main in BANK0

    _main->_Ds_Regla_de_3
    _Ds_Regla_de_3->___fltol
    ___fltol->___flmul

Critical Paths under _main in BANK1

    None.

Critical Paths under _main in BANK2

    None.

Critical Paths under _main in BANK3

    None.

Critical Paths under _main in BANK4

    None.

Call Graph Tables:

 ---------------------------------------------------------------------------------
 (Depth) Function   	        Calls       Base Space   Used Autos Params    Refs
 ---------------------------------------------------------------------------------
 (0) _main                                                35    35      0    6474
                                             45 BANK0     33    33      0
            _ADC_GetConversionResult
                     _ADC_Initialize
               _ADC_IsConversionDone
                _ADC_StartConversion
                             _Ds_BCD
                   _Ds_Encienda_Disp
                _Ds_Iniciar_displays
                      _Ds_Regla_de_3
                  _Ds_Separar_Digito
                       _EUSART_Write
                  _SYSTEM_Initialize
                    _TMR6_StartTimer
                _Tm_Inicie_periodico
 ---------------------------------------------------------------------------------
 (1) _Tm_Inicie_periodico                                  4     2      2     219
                                              0 COMMON     4     2      2
 ---------------------------------------------------------------------------------
 (1) _TMR6_StartTimer                                      0     0      0       0
 ---------------------------------------------------------------------------------
 (1) _SYSTEM_Initialize                                    0     0      0     294
                     _ADC_Initialize
                  _EUSART_Initialize
              _OSCILLATOR_Initialize
             _PIN_MANAGER_Initialize
                    _TMR6_Initialize
                     _WDT_Initialize
 ---------------------------------------------------------------------------------
 (2) _WDT_Initialize                                       0     0      0       0
 ---------------------------------------------------------------------------------
 (2) _TMR6_Initialize                                      0     0      0       0
 ---------------------------------------------------------------------------------
 (2) _PIN_MANAGER_Initialize                               0     0      0       0
 ---------------------------------------------------------------------------------
 (2) _OSCILLATOR_Initialize                                0     0      0       0
 ---------------------------------------------------------------------------------
 (2) _EUSART_Initialize                                    0     0      0     294
             _EUSART_SetErrorHandler
      _EUSART_SetFramingErrorHandler
      _EUSART_SetOverrunErrorHandler
 ---------------------------------------------------------------------------------
 (3) _EUSART_SetOverrunErrorHandler                        2     0      2      98
                                              0 COMMON     2     0      2
 ---------------------------------------------------------------------------------
 (3) _EUSART_SetFramingErrorHandler                        2     0      2      98
                                              0 COMMON     2     0      2
 ---------------------------------------------------------------------------------
 (3) _EUSART_SetErrorHandler                               2     0      2      98
                                              0 COMMON     2     0      2
 ---------------------------------------------------------------------------------
 (2) _ADC_Initialize                                       0     0      0       0
 ---------------------------------------------------------------------------------
 (1) _EUSART_Write                                         1     1      0      22
                                              0 COMMON     1     1      0
 ---------------------------------------------------------------------------------
 (1) _Ds_Separar_Digito                                    4     2      2    1368
                                              8 COMMON     4     2      2
                            ___lwdiv
                            ___lwmod
 ---------------------------------------------------------------------------------
 (2) ___lwmod                                              6     2      4     615
                                              0 COMMON     6     2      4
 ---------------------------------------------------------------------------------
 (2) ___lwdiv                                              8     4      4     466
                                              0 COMMON     8     4      4
 ---------------------------------------------------------------------------------
 (1) _Ds_Regla_de_3                                        8     6      2    3264
                                             37 BANK0      8     6      2
                            ___flmul
                            ___fltol
                           ___xxtofl
 ---------------------------------------------------------------------------------
 (2) ___xxtofl                                            14    10      4     398
                                              0 COMMON    14    10      4
 ---------------------------------------------------------------------------------
 (2) ___fltol                                             11     7      4     305
                                             26 BANK0     11     7      4
                            ___flmul (ARG)
                           ___xxtofl (ARG)
 ---------------------------------------------------------------------------------
 (2) ___flmul                                             26    18      8    2417
                                              0 BANK0     26    18      8
                          __Umul8_16
                           ___xxtofl (ARG)
 ---------------------------------------------------------------------------------
 (3) __Umul8_16                                            9     7      2     799
                                              0 COMMON     9     7      2
 ---------------------------------------------------------------------------------
 (1) _Ds_Iniciar_displays                                  7     2      5     743
                                              0 COMMON     7     2      5
 ---------------------------------------------------------------------------------
 (1) _Ds_Encienda_Disp                                     3     3      0      22
                                              0 COMMON     3     3      0
 ---------------------------------------------------------------------------------
 (1) _Ds_BCD                                               3     3      0      22
                                              0 COMMON     3     3      0
 ---------------------------------------------------------------------------------
 (1) _ADC_StartConversion                                  0     0      0       0
 ---------------------------------------------------------------------------------
 (1) _ADC_IsConversionDone                                 0     0      0       0
 ---------------------------------------------------------------------------------
 (1) _ADC_GetConversionResult                              2     0      2       0
                                              0 COMMON     2     0      2
 ---------------------------------------------------------------------------------
 Estimated maximum stack depth 3
 ---------------------------------------------------------------------------------

 Call Graph Graphs:

 _main (ROOT)
   _ADC_GetConversionResult
   _ADC_Initialize
   _ADC_IsConversionDone
   _ADC_StartConversion
   _Ds_BCD
   _Ds_Encienda_Disp
   _Ds_Iniciar_displays
   _Ds_Regla_de_3
     ___flmul
       __Umul8_16
       ___xxtofl (ARG)
     ___fltol
       ___flmul (ARG)
       ___xxtofl (ARG)
     ___xxtofl
   _Ds_Separar_Digito
     ___lwdiv
     ___lwmod
   _EUSART_Write
   _SYSTEM_Initialize
     _ADC_Initialize
     _EUSART_Initialize
       _EUSART_SetErrorHandler
       _EUSART_SetFramingErrorHandler
       _EUSART_SetOverrunErrorHandler
     _OSCILLATOR_Initialize
     _PIN_MANAGER_Initialize
     _TMR6_Initialize
     _WDT_Initialize
   _TMR6_StartTimer
   _Tm_Inicie_periodico

 Address spaces:
Name               Size   Autos  Total    Cost      Usage
BIGRAM             170      0       0       0        0.0%
EEDATA             100      0       0       0        0.0%
NULL                 0      0       0       0        0.0%
CODE                 0      0       0       0        0.0%
BITCOMMON            E      0       0       1        0.0%
BITSFR0              0      0       0       1        0.0%
SFR0                 0      0       0       1        0.0%
COMMON               E      E       E       2      100.0%
BITSFR1              0      0       0       2        0.0%
SFR1                 0      0       0       2        0.0%
BITSFR2              0      0       0       3        0.0%
SFR2                 0      0       0       3        0.0%
STACK                0      0       0       3        0.0%
BITSFR3              0      0       0       4        0.0%
SFR3                 0      0       0       4        0.0%
ABS                  0      0      65       4        0.0%
BITBANK0            50      0       0       5        0.0%
BITSFR4              0      0       0       5        0.0%
SFR4                 0      0       0       5        0.0%
BANK0               50     4E      4F       6       98.8%
BITSFR5              0      0       0       6        0.0%
SFR5                 0      0       0       6        0.0%
BITBANK1            50      0       0       7        0.0%
BITSFR6              0      0       0       7        0.0%
SFR6                 0      0       0       7        0.0%
BANK1               50      0       8       8       10.0%
BITSFR7              0      0       0       8        0.0%
SFR7                 0      0       0       8        0.0%
BITBANK2            50      0       0       9        0.0%
BITSFR8              0      0       0       9        0.0%
SFR8                 0      0       0       9        0.0%
BANK2               50      0       0      10        0.0%
BITSFR9              0      0       0      10        0.0%
SFR9                 0      0       0      10        0.0%
BITBANK3            50      0       0      11        0.0%
BITSFR10             0      0       0      11        0.0%
SFR10                0      0       0      11        0.0%
BANK3               50      0       0      12        0.0%
BITSFR11             0      0       0      12        0.0%
SFR11                0      0       0      12        0.0%
BITBANK4            30      0       0      13        0.0%
BITSFR12             0      0       0      13        0.0%
SFR12                0      0       0      13        0.0%
BANK4               30      0       0      14        0.0%
BITSFR13             0      0       0      14        0.0%
SFR13                0      0       0      14        0.0%
BITSFR14             0      0       0      15        0.0%
SFR14                0      0       0      15        0.0%
DATA                 0      0      65      15        0.0%
BITSFR15             0      0       0      16        0.0%
SFR15                0      0       0      16        0.0%
BITSFR16             0      0       0      17        0.0%
SFR16                0      0       0      17        0.0%
BITSFR17             0      0       0      18        0.0%
SFR17                0      0       0      18        0.0%
BITSFR18             0      0       0      19        0.0%
SFR18                0      0       0      19        0.0%
BITSFR19             0      0       0      20        0.0%
SFR19                0      0       0      20        0.0%
BITSFR20             0      0       0      21        0.0%
SFR20                0      0       0      21        0.0%
BITSFR21             0      0       0      22        0.0%
SFR21                0      0       0      22        0.0%
BITSFR22             0      0       0      23        0.0%
SFR22                0      0       0      23        0.0%
BITSFR23             0      0       0      24        0.0%
SFR23                0      0       0      24        0.0%
BITSFR24             0      0       0      25        0.0%
SFR24                0      0       0      25        0.0%
BITSFR25             0      0       0      26        0.0%
SFR25                0      0       0      26        0.0%
BITSFR26             0      0       0      27        0.0%
SFR26                0      0       0      27        0.0%
BITSFR27             0      0       0      28        0.0%
SFR27                0      0       0      28        0.0%
BITSFR28             0      0       0      29        0.0%
SFR28                0      0       0      29        0.0%
BITSFR29             0      0       0      30        0.0%
SFR29                0      0       0      30        0.0%
BITSFR30             0      0       0      31        0.0%
SFR30                0      0       0      31        0.0%
BITSFR31             0      0       0      32        0.0%
SFR31                0      0       0      32        0.0%


Microchip Technology PIC Macro Assembler V2.32 build 20210201212658 
Symbol Table                                                                                   Wed Sep 08 17:37:23 2021

                                main@Apagar_Tr 0056                                             l23 00F9  
                                           l17 0127                                             l26 011F  
                                           l29 0106                                             l81 01D4  
                            ??_TMR6_StartTimer 0070                              main@My_Per_1000ms 005D  
                          __Umul8_16@word_mpld 0076                                            l120 0112  
                                          l105 0129                                            l202 0100  
                                          l123 0118                                            l108 0131  
                                          l126 010C                                            l311 01DC  
                                          l303 01D7                                            l320 01E3  
                                          l401 03E3                                            l313 01DE  
                                          l305 01D9                                            l322 01E4  
                                          l403 03E4                                            l315 01DF  
                                          l331 0201                                            l307 01DA  
                                          l227 0170                                            l243 013B  
                                          l420 03EE                                            l412 03E9  
                                          l340 03BF                                            l405 03E5  
                                          l501 044A                                            l325 01E6  
                                          l422 03EF                                            l414 03EB  
                                          l342 03C0                                            l318 01E1  
                                          l246 00FC                                            l431 03F5  
                                          l407 03E6                                            l327 01E8  
                                          l424 03F0                                            l416 03EC  
                                          l360 03CA                                            l352 03C5  
                                          l344 03C1                                            l336 03BC  
                                          l504 0344                                            l433 03F6  
                                          l409 03E7                                            l329 01E9  
                                          l193 015A                                            l265 018E  
                                          l450 0400                                            l442 03FB  
                                          l418 03ED                                            l362 03CB  
                                          l354 03C7                                            l346 03C2  
                                          l338 03BE                                            l435 03F7  
                                          l427 03F2                                            l371 03D1  
                                          l507 02AE                                            l452 0401  
                                          l444 03FD                                            l364 03CC  
                                          l356 03C8                                            l348 03C3  
                                          l196 0142                                            l461 0407  
                                          l437 03F8                                            l429 03F4  
                                          l373 03D2                                            l454 0402  
                                          l446 03FE                                            l390 03DC  
                                          l382 03D7                                            l358 03C9  
                                          l463 0408                                            l439 03F9  
                                          l375 03D3                                            l367 03CE  
                                          l199 0147                                            l480 0412  
                                          l472 040D                                            l448 03FF  
                                          l392 03DD                                            l384 03D9  
                                          l465 0409                                            l457 0404  
                                          l377 03D4                                            l369 03D0  
                                          l482 0413                                            l474 040F  
                                          l394 03DE                                            l386 03DA  
                                          l298 02EC                                            l491 0419  
                                          l467 040A                                            l459 0406  
                                          l379 03D5                                            l484 0414  
                                          l476 0410                                            l388 03DB  
                                          l493 041A                                            l469 040B  
                                          l397 03E0                                            l478 0411  
                                          l495 041B                                            l487 0416  
                                          l399 03E2                                            l497 041C  
                                          l489 0418                                            l499 041D  
                                          l872 03B9                                            l882 03B9  
                                          l958 0271                                            l879 03A4  
                                          l968 0235                                            _PR6 041D  
                                          u800 0351                                            u801 0350  
                                          u810 0367                                            u820 037C  
                                          u900 023E                                            u821 037B  
                                          u901 023D                                            u830 0383  
                                          u831 0382                                            u815 0363  
                                          u760 019D                                            u920 024E  
                                          u761 019C                                            u921 024D  
                                          u850 0393                                            u851 0392  
                                          u915 0242                                            u780 01AD  
                                          u860 039A                                            u940 025D  
                                          u781 01AC                                            u861 0399  
                                          u845 0385                                            u941 025C  
                                          u790 0147                                            u775 01A2  
                                          u935 024F                                            u791 0146  
                                          u880 03A9                                            u960 026D  
                                          u881 03A8                                            u961 026C  
                                          u945 0259                                            u890 03AE  
                                          u970 0208                                            u891 03AD  
                                          u875 039C                                            u955 0263  
                                          u971 0207                                            u990 0218  
                                          u991 0217                                            u985 020C  
               ?_EUSART_SetFramingErrorHandler 0070                                            wreg 0009  
                                 ___flmul@aexp 0032                                   ___flmul@bexp 0033  
                                 ___flmul@sign 002D                                   ___flmul@temp 0038  
                                 ___flmul@prod 0034                                main@Apagar_7seg 0055  
                                 ___fltol@exp1 0044                                           l2000 072A  
                                         l1121 059A                                           l2010 0749  
                                         l2002 0736                                           l2100 00F7  
                                         l2020 076A                                           l2004 073D  
                                         l2012 074D                                           l1132 0566  
                                         l1133 0572                                           l1125 054C  
                                         l2102 0119                                           l2030 0783  
                                         l2014 0751                                           l2006 0741  
                                         l2110 0129                                           l1119 0511  
                                         l2120 02BC                                           l2040 07C4  
                                         l2032 079B                                           l2024 0772  
                                         l2016 0752                                           l2008 0742  
                                         l2112 012E                                           l2200 0465  
                                         l1081 076D                                           l2106 0101  
                                         l2130 02E4                                           l2122 02C4  
                                         l2050 07E1                                           l2042 07CD  
                                         l2026 0777                                           l2034 079F  
                                         l2018 0756                                           l2114 0148  
                                         l2210 0487                                           l2202 0468  
                                         l1075 07F1                                           l2124 02CC  
                                         l2052 07E9                                           l2044 07CF  
                                         l2036 07AC                                           l2028 077F  
                                         l2060 04F9                                           l2132 00FA  
                                         l2116 0172                                           l2220 04B1  
                                         l2212 048F                                           l2204 0481  
                                         l2150 03BB                                           l2126 02D4  
                                         l2118 02B0                                           l1094 01A1  
                                         l2046 07DC                                           l2038 07B6  
                                         l2070 0527                                           l2062 0509  
                                         l2134 0272                                           l2142 02EE  
                                         l2230 04C8                                           l2222 04B5  
                                         l2214 0497                                           l2206 0484  
                                         l1087 07E5                                           l2160 01D6  
                                         l2128 02DC                                           l1096 01B1  
                                         l2048 07E0                                           l2080 0553  
                                         l2072 0532                                           l2064 0519  
                                         l2056 04F0                                           l2136 027B  
                                         l2144 0300                                           l2240 04DC  
                                         l2232 04C8                                           l2224 04BA  
                                         l2216 04A3                                           l2208 0487  
                                         l2154 041F                                           l2330 01F3  
                                         l2090 0588                                           l2082 055C  
                                         l2074 0539                                           l2058 04F5  
                                         l2138 02AA                                           l2146 030F  
                                         l2242 04E1                                           l2234 04CD  
                                         l2226 04BF                                           l2218 04AB  
                                         l2332 0427                                           l2164 01EB  
                                         l2092 058D                                           l2084 0560  
                                         l2076 053D                                           l2068 0522  
                                         l2148 0331                                           l2244 04E1  
                                         l2236 04D2                                           l2228 04C3  
                                         l2094 0591                                           l2086 056A  
                                         l2078 0545                                           l2246 04E1  
                                         l2238 04D7                                           l2190 0453  
                                         l2182 044B                                           l2096 0592  
                                         l2088 0574                                           l1800 01CB  
                                         l2248 04E6                                           l2192 0453  
                                         l2184 044E                                           l1802 01D2  
                                         l1810 0163                                           l2194 0456  
                                         l2186 0452                                           l1900 0210  
                                         l1820 0140                                           l1812 0166  
                                         l1804 015B                                           l2196 045E  
                                         l2188 0453                                           l1910 022B  
                                         l1902 0214                                           l1814 016B  
                                         l1806 015E                                           l1830 0138  
                                         l1822 00FD                                           l2198 0461  
                                         l1920 05A5                                           l1840 036D  
                                         l1832 0345                                           l1904 0218  
                                         l1912 0231                                           l1816 013C  
                                         l1808 0161                                           l1824 0132  
                                         l1930 05BC                                           l1922 05A9  
                                         l1842 036E                                           l1834 0351  
                                         l1906 0222                                           l1770 0113  
                                         l1818 013F                                           l1826 0135  
                                         l1780 019D                                           l1940 05D3  
                                         l1932 05BE                                           l1924 05AA  
                                         l1916 059B                                           l1844 0376  
                                         l1908 0226                                           l1772 0107  
                                         l1828 0136                                           l1782 01A8  
                                         l1774 0190                                           l1950 05E8  
                                         l1942 05D4                                           l1934 05C6  
                                         l1926 05AF                                           l1918 05A1  
                                         l1862 039B                                           l1854 0384  
                                         l1846 0378                                           l1838 035A  
                                         l1870 0238                                           l1790 0123  
                                         l1784 01AD                                           l1776 0192  
                                         l1960 0603                                           l1952 05F0  
                                         l1944 05D9                                           l1936 05CB  
                                         l1928 05B4                                           l1864 03A9  
                                         l1848 037C                                           l1856 0394  
                                         l1880 024E                                           l1872 023E  
                                         l1792 0124                                           l1768 010D  
                                         l1778 0199                                           l1970 065E  
                                         l1962 0610                                           l1954 05F5  
                                         l1946 05DE                                           l1938 05CF  
                                         l1866 03AE                                           l1882 025D  
                                         l1874 0241                                           l1890 026D  
                                         l1794 01B2                                           l1980 0693  
                                         l1972 066B                                           l1964 061D  
                                         l1956 05FA                                           l1948 05E6  
                                         l1884 0261                                           l1876 0246  
                                         l1868 0236                                           l1788 0120  
                                         l1796 01BD                                           l1990 06D6  
                                         l1982 06A0                                           l1974 0678  
                                         l1966 0637                                           l1886 0262  
                                         l1878 024A                                           l1894 0202  
                                         l1798 01C4                                           l1992 06E3  
                                         l1984 06A7                                           l1976 067F  
                                         l1968 0644                                           l1888 0267  
                                         l1896 0208                                           l1994 06F7  
                                         l1986 06BB                                           l1978 068C  
                                         l1898 020B                                           l1996 070C  
                                         l1988 06C2                                           l1998 0723  
                   __size_of_Ds_Separar_Digito 0058                                           u1000 0222  
                                         u1001 0221                                           u1100 05FA  
                                         u1020 0231                                           u1101 05F9  
                                         u1021 0230                                           u1005 021E  
                                         u1030 05A9                                           u1031 05A8  
                                         u1015 0227                                           u1200 0756  
                                         u1040 05AF                                           u1201 0755  
                                         u1041 05AE                                           u1210 076A  
                                         u1130 0702                                           u1050 05B4  
                                         u1211 0769                                           u1115 0679  
                                         u1051 05B3                                           u1220 0771  
                                         u1140 0719                                           u1060 05D3  
                                         u1300 04F9                                           u1221 0770  
                                         u1125 06A8                                           u1061 05D2  
                                         u1301 04F8                                           u1230 0777  
                                         u1070 05D9                                           u1310 0519  
                                         u1231 0776                                           u1135 06FE  
                                         u1071 05D8                                           u1311 0518  
                                         u1240 0783                                           u1080 05DE  
                                         u1400 057E                                           u1241 0782  
                                         u1145 0715                                           u1081 05DD  
                                         u1250 0791                                           u1170 0741  
                                         u1090 05F5                                           u1410 058D  
                                         u1330 0538                                           u1171 0740  
                                         u1155 0724                                           u1091 05F4  
                                         u1411 058C                                           u1331 0537  
                                         u1260 07AC                                           u1420 0591  
                                         u1261 07AB                                           u1165 0737  
                                         u1421 0590                                           u1405 057A  
                                         u1325 052C                                           _LATA 010C  
                                         u1270 07C4                                           u1190 0751  
                                         u1350 0552                                           u1430 012E  
                                         _LATB 010D                                           u1271 07C3  
                                         u1255 078D                                           u1191 0750  
                                         u1351 0551                                           u1431 012D  
                                         u1280 07E0                                           u1281 07DF  
                                         u1265 07A8                                           u1185 0743  
                                         u1345 0546                                           u1370 0560  
                                         u1290 04F5                                           u1275 07C0  
                                         u1371 055F                                           u1291 04F4  
                                         u1380 0566                                           u1460 048F  
                                         u1381 0565                                           u1365 0556  
                                         u1461 048E                                           u1390 056A  
                                         u1391 0569                                           _PLLR 04D6  
                                         _TMR6 041C                                           _WPUA 020C  
                                         _WPUB 020D                                           _main 044B  
                                         fsr1h 0007                                           indf1 0001  
                                         fsr1l 0006                                           btemp 007E  
                        __end_of_Ds_Regla_de_3 02AF                        Ds_Encienda_Disp@dispNum 0072  
                                         start 0002                                  ?_EUSART_Write 0070  
               __size_of_OSCILLATOR_Initialize 000C                  __end_of_OSCILLATOR_Initialize 0148  
                                ___fltol@sign1 0043                                          ?_main 0070  
                              __end_of___flmul 07F2                                __end_of___fltol 03BA  
                                        _T6CON 041E                                __end_of___lwdiv 0272  
                              __end_of___lwmod 0236                                          _RCREG 0199  
                                        _RCSTA 019D                                          _TRISA 008C  
                                        _TRISB 008D                                          _TXREG 019A  
                                        _TXSTA 019E               __size_of_ADC_GetConversionResult 0006  
                            ?_Ds_Encienda_Disp 0070                             ??_Ds_Encienda_Disp 0070  
                               _WDT_Initialize 00FD                                          status 0003  
                                        wtemp0 007E                    __end_of_Tm_Inicie_periodico 018F  
                               main@My_Display 0066                                __initialization 07F2  
                                 __end_of_main 04EF                                 ??_EUSART_Write 0070  
                                       ??_main 004D                   __size_of_Ds_Iniciar_displays 003E  
                       __end_of_WDT_Initialize 0101                                _TMR6_Initialize 0132  
                __size_of_ADC_IsConversionDone 0007              _EUSART_DefaultFramingErrorHandler 0000  
                                       _ADCON0 009D                                         _ADCON1 009E  
                   _EUSART_OverrunErrorHandler 00A2                                         _ADRESH 009C  
                                       _ADRESL 009B                                         _ANSELA 018C  
                                       _ANSELB 018D                                         _BORCON 0116  
                                       _OSCCON 0099                                         _SPBRGH 019C  
                                       _SPBRGL 019B                                         _WDTCON 0097  
                             __end_of___xxtofl 059B                                         _Ds_BCD 03BA  
                                    ??___flmul 0028                                      ??___fltol 003E  
                                    ??___lwdiv 0074                           Ds_Separar_Digito@dsp 007B  
                                    ??___lwmod 0074                             __size_of__Umul8_16 0023  
                              ?_WDT_Initialize 0070                      Ds_Separar_Digito@Recibido 0078  
                                 ___xxtofl@arg 007A                                   ___xxtofl@exp 0079  
                            _SYSTEM_Initialize 0148                                   ___xxtofl@val 0070  
                      __end_of__initialization 07FD                          Ds_Iniciar_displays@d1 0070  
                        Ds_Iniciar_displays@d2 0071                          Ds_Iniciar_displays@d3 0072  
                        Ds_Iniciar_displays@tA 0074                          Ds_Iniciar_displays@tE 0073  
                           ?_SYSTEM_Initialize 0070                                _TMR6_StartTimer 00FA  
                         Ds_Regla_de_3@salidaa 0047                                     ___fltol@f1 003A  
                                 Ds_BCD@digito 0072                   __size_of_ADC_StartConversion 0003  
                               __pcstackCOMMON 0070                            ??_SYSTEM_Initialize 0072  
                      __end_of_TMR6_Initialize 013C                        _ADC_GetConversionResult 0101  
                               _OPTION_REGbits 0095                ??_EUSART_SetOverrunErrorHandler 0072  
                           Ds_Regla_de_3@Leido 0045                      __end_of_SYSTEM_Initialize 015B  
                                   __pbssBANK0 006E                                     __pbssBANK1 00A0  
                         __end_of_EUSART_Write 0132                                        ?_Ds_BCD 0070  
                            __end_of__Umul8_16 01B2                                     __pmaintext 044B  
                                      _BAUDCON 019F                                        _APFCON0 011D  
                                      _APFCON1 011E                        __size_of_ADC_Initialize 0008  
                                    ?___xxtofl 0070                                        _OSCTUNE 0098  
                     ??_EUSART_SetErrorHandler 0072                        __end_of_TMR6_StartTimer 00FD  
                          _Ds_Iniciar_displays 02AF                                __size_of_Ds_BCD 0091  
                    __size_of_Ds_Encienda_Disp 002D                           _ADC_InterruptHandler 00A6  
                                      ___flmul 059B                                        ___fltol 0345  
                                      ___lwdiv 0236                                        ___lwmod 0202  
                    ??_ADC_GetConversionResult 0072                               ?_TMR6_Initialize 0070  
                                      __ptext1 0171                                        __ptext2 00FA  
                                      __ptext3 0148                                        __ptext4 00FD  
                                      __ptext5 0132                                        __ptext6 015B  
                                      __ptext7 013C                                        __ptext8 01B2  
                                      __ptext9 0113                           ?_Ds_Iniciar_displays 0070  
                        _OSCILLATOR_Initialize 013C                         __size_of_Ds_Regla_de_3 003D  
                                   ??___xxtofl 0074                       ??_PIN_MANAGER_Initialize 0070  
                                    _T6CONbits 041E                     __size_of_SYSTEM_Initialize 0013  
                         end_of_initialization 07FD          __end_of_EUSART_SetOverrunErrorHandler 0119  
       __size_of_EUSART_SetOverrunErrorHandler 0006                  _EUSART_SetOverrunErrorHandler 0113  
                            _EUSART_Initialize 01B2                   __end_of_ADC_IsConversionDone 0120  
                           ?_EUSART_Initialize 0070                                      _RCSTAbits 019D  
                 __size_of_Tm_Inicie_periodico 001E                            ??_EUSART_Initialize 0072  
                             ??_WDT_Initialize 0070                          ??_Ds_Iniciar_displays 0075  
                                ___xxtofl@sign 0078                          __size_of_EUSART_Write 000A  
                          _ADC_StartConversion 00F7                         Ds_Iniciar_displays@dsp 0076  
              __size_of_EUSART_SetErrorHandler 0006                               ?_TMR6_StartTimer 0070  
                                  ___flmul@grs 002E                      __end_of_EUSART_Initialize 01D5  
                                    _TXSTAbits 019E                                  _Ds_Regla_de_3 0272  
                               __end_of_Ds_BCD 044B                           ?_ADC_StartConversion 0070  
                   _EUSART_DefaultErrorHandler 0000                                   _EUSART_Write 0128  
                               _ADC_Initialize 0120                         ?_OSCILLATOR_Initialize 0070  
                          start_initialization 07F2                __size_of_PIN_MANAGER_Initialize 0016  
                                     ??_Ds_BCD 0070                                 ?_Ds_Regla_de_3 0045  
                             _Ds_Encienda_Disp 01D5                 ?_EUSART_SetOverrunErrorHandler 0070  
                        ??_ADC_StartConversion 0070                         Tm_Inicie_periodico@ctp 0073  
                   _EUSART_FramingErrorHandler 00A4                         _EUSART_SetErrorHandler 0107  
                       __end_of_ADC_Initialize 0128                                      __Umul8_16 018F  
                                    ___flmul@a 0024                                      ___flmul@b 0020  
                          Ds_Regla_de_3@salida 004B                                      ___latbits 0001  
                                __pcstackBANK0 0020                           _ADC_IsConversionDone 0119  
                            __size_of___xxtofl 00AC                     __size_of_EUSART_Initialize 0023  
                             ___lwdiv@dividend 0072                         _PIN_MANAGER_Initialize 015B  
                                     ?___flmul 0020                                       ?___fltol 003A  
                                   ?__Umul8_16 0070                                       ?___lwdiv 0070  
                                     ?___lwmod 0070                                ?_ADC_Initialize 0070  
                        ?_ADC_IsConversionDone 0070                               ___lwdiv@quotient 0075  
                          _Tm_Inicie_periodico 0171                                ??_Ds_Regla_de_3 007E  
                                     _LATAbits 010C         EUSART_SetErrorHandler@interruptHandler 0070  
                                     _LATBbits 010D                              _eusartRxLastError 006E  
                                     _PIR1bits 0011                ??_EUSART_SetFramingErrorHandler 0072  
                                     _PIR3bits 0013                           ?_Tm_Inicie_periodico 0070  
            _EUSART_DefaultOverrunErrorHandler 0000                           main@Valor_Convertido 0053  
                                   _ADCON0bits 009D                       __size_of_TMR6_Initialize 000A  
                     ?_ADC_GetConversionResult 0070                          ??_Tm_Inicie_periodico 0072  
                  __end_of_Ds_Iniciar_displays 02ED                        ??_OSCILLATOR_Initialize 0070  
                                  ??__Umul8_16 0072                            _EUSART_ErrorHandler 00A0  
                             __size_of___flmul 0257                               __size_of___fltol 0075  
                             __size_of___lwdiv 003C                               __size_of___lwmod 0034  
                       ??_ADC_IsConversionDone 0070                       __end_of_Ds_Encienda_Disp 0202  
                   Tm_Inicie_periodico@periodo 0070                                       ___xxtofl 04EF  
                              ___lwdiv@divisor 0070                                ___lwdiv@counter 0077  
                                     __ptext10 010D                                       __ptext11 0107  
                                     __ptext20 059B                                       __ptext12 0120  
                                     __ptext21 018F                                       __ptext13 0128  
                                     __ptext22 02AF                                       __ptext14 02ED  
                                     __ptext23 01D5                                       __ptext15 0202  
                                     __ptext24 03BA                                       __ptext16 0236  
                                     __ptext25 00F7                                       __ptext17 0272  
                                     __ptext26 0119                                       __ptext18 04EF  
                                     __ptext27 0101                                       __ptext19 0345  
                            _Ds_Separar_Digito 02ED                                  __size_of_main 00A4  
                           ?_Ds_Separar_Digito 0078                        ?_EUSART_SetErrorHandler 0070  
                     __size_of_TMR6_StartTimer 0003  EUSART_SetOverrunErrorHandler@interruptHandler 0070  
                                     main@Pack 0057                            ??_Ds_Separar_Digito 007A  
                                main@ADC_Value 0051          __end_of_EUSART_SetFramingErrorHandler 0113  
       __size_of_EUSART_SetFramingErrorHandler 0006                  _EUSART_SetFramingErrorHandler 010D  
                      __size_of_WDT_Initialize 0004                      __end_of_Ds_Separar_Digito 0345  
                  __end_of_ADC_StartConversion 00FA                               ___lwmod@dividend 0072  
                      ?_PIN_MANAGER_Initialize 0070                              ??_TMR6_Initialize 0070  
              __end_of_ADC_GetConversionResult 0107                 __end_of_EUSART_SetErrorHandler 010D  
                             ??_ADC_Initialize 0070  EUSART_SetFramingErrorHandler@interruptHandler 0070  
                       __Umul8_16@multiplicand 0070                                ___lwmod@divisor 0070  
                              ___lwmod@counter 0075                             EUSART_Write@txData 0070  
               __end_of_PIN_MANAGER_Initialize 0171                           __Umul8_16@multiplier 0078  
                            __Umul8_16@product 0074  
