Microchip MPLAB XC8 Compiler V2.32

Linker command line:

-W-3 --edf=C:\Program Files\Microchip\xc8\v2.32\pic\dat\en_msgs.txt -cn \
  -h+dist/default/production\Intento3_1.X.production.sym \
  --cmf=dist/default/production\Intento3_1.X.production.cmf -z -Q16F1827 \
  -oC:\Users\migue\AppData\Local\Temp\xcAseag.4 --defsym=__MPLAB_BUILD=1 \
  -Mdist/default/production/Intento3_1.X.production.map -E1 \
  -ver=XC8 Compiler --acfsm=1493 -ASTACK=02058h-0216Fh -pstack=STACK \
  -ACODE=00h-07FFhx2 -ASTRCODE=00h-0FFFh -ASTRING=00h-0FFhx16 \
  -ACONST=00h-0FFhx16 -AENTRY=00h-0FFhx16 -ACOMMON=070h-07Fh \
  -ABANK0=020h-06Fh -ABANK1=0A0h-0EFh -ABANK2=0120h-016Fh \
  -ABANK3=01A0h-01EFh -ABANK4=0220h-024Fh -ABIGRAM=02000h-0216Fh \
  -ARAM=020h-06Fh,0A0h-0EFh,0120h-016Fh,01A0h-01EFh,0220h-024Fh \
  -AABS1=020h-07Fh,0A0h-0EFh,0120h-016Fh,01A0h-01EFh,0220h-024Fh \
  -ASFR0=00h-01Fh -ASFR1=080h-09Fh -ASFR2=0100h-011Fh -ASFR3=0180h-019Fh \
  -ASFR4=0200h-021Fh -ASFR5=0280h-02EFh -ASFR6=0300h-036Fh \
  -ASFR7=0380h-03EFh -ASFR8=0400h-046Fh -ASFR9=0480h-04EFh \
  -ASFR10=0500h-056Fh -ASFR11=0580h-05EFh -ASFR12=0600h-066Fh \
  -ASFR13=0680h-06EFh -ASFR14=0700h-076Fh -ASFR15=0780h-07EFh \
  -ASFR16=0800h-086Fh -ASFR17=0880h-08EFh -ASFR18=0900h-096Fh \
  -ASFR19=0980h-09EFh -ASFR20=0A00h-0A6Fh -ASFR21=0A80h-0AEFh \
  -ASFR22=0B00h-0B6Fh -ASFR23=0B80h-0BEFh -ASFR24=0C00h-0C6Fh \
  -ASFR25=0C80h-0CEFh -ASFR26=0D00h-0D6Fh -ASFR27=0D80h-0DEFh \
  -ASFR28=0E00h-0E6Fh -ASFR29=0E80h-0EEFh -ASFR30=0F00h-0F6Fh \
  -ASFR31=0F80h-0FEFh -ACONFIG=08007h-08008h -DCONFIG=2 \
  -AIDLOC=08000h-08003h -DIDLOC=2 -AEEDATA=00h-0FFh/0F000h \
  -peeprom_data=EEDATA -DEEDATA=2 -DCODE=2 -DSTRCODE=2 -DSTRING=2 -DCONST=2 \
  -DENTRY=2 -preset_vec=00h,intentry,init,end_init -ppowerup=CODE \
  -pcinit=CODE -pfunctab=ENTRY -k \
  C:\Users\migue\AppData\Local\Temp\xcAseag.o \
  dist/default/production\Intento3_1.X.production.o 

Object code version is 3.11

Machine type is 16F1827



                Name                               Link     Load   Length Selector   Space Scale
C:\Users\migue\AppData\Local\Temp\xcAseag.o
                end_init                              2        2        2        0       0
                reset_vec                             0        0        2        0       0
                config                             8007     8007        2        0       4
dist/default/production\Intento3_1.X.production.o
                cinit                               7F2      7F2        E      FE4       0
                config                             8007     8007        2        0       4
                text27                              101      101        6      202       0
                text26                              119      119        7      232       0
                text25                               F7       F7        3      1EE       0
                text24                              3BA      3BA       91      774       0
                text23                              1D5      1D5       2D      3AA       0
                text22                              2AF      2AF       3E      55E       0
                text21                              18F      18F       23      31E       0
                text20                              59B      59B      257      B36       0
                text19                              345      345       75      68A       0
                text18                              4EF      4EF       AC      9DE       0
                text17                              272      272       3D      4E4       0
                text16                              236      236       3C      46C       0
                text15                              202      202       34      404       0
                text14                              2ED      2ED       58      5DA       0
                text13                              128      128        A      250       0
                text12                              120      120        8      240       0
                text11                              107      107        6      20E       0
                text10                              10D      10D        6      21A       0
                text9                               113      113        6      226       0
                text8                               1B2      1B2       23      364       0
                text7                               13C      13C        C      278       0
                text6                               15B      15B       16      2B6       0
                text5                               132      132        A      264       0
                text4                                FD       FD        4      1FA       0
                text3                               148      148       13      290       0
                text2                                FA       FA        3      1F4       0
                text1                               171      171       1E      2E2       0
                maintext                            44B      44B       A4      896       0
                cstackBANK0                          20       20       4E       20       1
                cstackCOMMON                         70       70        E       70       1
                bssBANK1                             A0       A0        8       A0       1
                bssBANK0                             6E       6E        1       20       1

TOTAL           Name                               Link     Load   Length     Space
        CLASS   STACK          

        CLASS   CODE           
                end_init                              2        2        2         0
                cinit                               7F2      7F2        E         0
                reset_vec                             0        0        2         0
                text27                              101      101        6         0
                text26                              119      119        7         0
                text25                               F7       F7        3         0
                text24                              3BA      3BA       91         0
                text23                              1D5      1D5       2D         0
                text22                              2AF      2AF       3E         0
                text21                              18F      18F       23         0
                text20                              59B      59B      257         0
                text19                              345      345       75         0
                text18                              4EF      4EF       AC         0
                text17                              272      272       3D         0
                text16                              236      236       3C         0
                text15                              202      202       34         0
                text14                              2ED      2ED       58         0
                text13                              128      128        A         0
                text12                              120      120        8         0
                text11                              107      107        6         0
                text10                              10D      10D        6         0
                text9                               113      113        6         0
                text8                               1B2      1B2       23         0
                text7                               13C      13C        C         0
                text6                               15B      15B       16         0
                text5                               132      132        A         0
                text4                                FD       FD        4         0
                text3                               148      148       13         0
                text2                                FA       FA        3         0
                text1                               171      171       1E         0
                maintext                            44B      44B       A4         0

        CLASS   STRCODE        

        CLASS   STRING         

        CLASS   CONST          

        CLASS   ENTRY          

        CLASS   COMMON         
                cstackCOMMON                         70       70        E         1

        CLASS   BANK0          
                cstackBANK0                          20       20       4E         1
                bssBANK0                             6E       6E        1         1

        CLASS   BANK1          
                bssBANK1                             A0       A0        8         1

        CLASS   BANK2          

        CLASS   BANK3          

        CLASS   BANK4          

        CLASS   BIGRAM         

        CLASS   RAM            

        CLASS   ABS1           
                abs_s1                               7E       7E        2         1

        CLASS   SFR0           

        CLASS   SFR1           

        CLASS   SFR2           

        CLASS   SFR3           

        CLASS   SFR4           

        CLASS   SFR5           

        CLASS   SFR6           

        CLASS   SFR7           

        CLASS   SFR8           

        CLASS   SFR9           

        CLASS   SFR10          

        CLASS   SFR11          

        CLASS   SFR12          

        CLASS   SFR13          

        CLASS   SFR14          

        CLASS   SFR15          

        CLASS   SFR16          

        CLASS   SFR17          

        CLASS   SFR18          

        CLASS   SFR19          

        CLASS   SFR20          

        CLASS   SFR21          

        CLASS   SFR22          

        CLASS   SFR23          

        CLASS   SFR24          

        CLASS   SFR25          

        CLASS   SFR26          

        CLASS   SFR27          

        CLASS   SFR28          

        CLASS   SFR29          

        CLASS   SFR30          

        CLASS   SFR31          

        CLASS   CONFIG         
                config                             8007     8007        2         4

        CLASS   IDLOC          

        CLASS   EEDATA         

        CLASS   BANK31         

        CLASS   BANK30         

        CLASS   BANK29         

        CLASS   BANK28         

        CLASS   BANK27         

        CLASS   BANK26         

        CLASS   BANK25         

        CLASS   BANK24         

        CLASS   BANK23         

        CLASS   BANK22         

        CLASS   BANK21         

        CLASS   BANK20         

        CLASS   BANK19         

        CLASS   BANK18         

        CLASS   BANK17         

        CLASS   BANK16         

        CLASS   BANK15         

        CLASS   BANK14         

        CLASS   BANK13         

        CLASS   BANK12         

        CLASS   BANK11         

        CLASS   BANK10         

        CLASS   BANK9          

        CLASS   BANK8          

        CLASS   BANK7          

        CLASS   BANK6          

        CLASS   BANK5          



SEGMENTS        Name                           Load    Length   Top    Selector   Space  Class     Delta

                reset_vec                      000000  000004  000004         0       0  CODE        2
                cstackBANK0                    000020  00004F  00006F        20       1  BANK0       1
                cstackCOMMON                   000070  00000E  00007E        70       1  COMMON      1
                bssBANK1                       0000A0  000008  0000A8        A0       1  BANK1       1
                text25                         0000F7  000003  0000FA       1EE       0  CODE        2
                text2                          0000FA  000003  0000FD       1F4       0  CODE        2
                text4                          0000FD  000004  000101       1FA       0  CODE        2
                text27                         000101  000006  000107       202       0  CODE        2
                text11                         000107  000006  00010D       20E       0  CODE        2
                text10                         00010D  000006  000113       21A       0  CODE        2
                text9                          000113  000006  000119       226       0  CODE        2
                text26                         000119  000007  000120       232       0  CODE        2
                text12                         000120  000008  000128       240       0  CODE        2
                text13                         000128  00000A  000132       250       0  CODE        2
                text5                          000132  00000A  00013C       264       0  CODE        2
                text7                          00013C  00000C  000148       278       0  CODE        2
                text3                          000148  000013  00015B       290       0  CODE        2
                text6                          00015B  000016  000171       2B6       0  CODE        2
                text1                          000171  00001E  00018F       2E2       0  CODE        2
                text21                         00018F  000023  0001B2       31E       0  CODE        2
                text8                          0001B2  000023  0001D5       364       0  CODE        2
                text23                         0001D5  00002D  000202       3AA       0  CODE        2
                text15                         000202  000034  000236       404       0  CODE        2
                text16                         000236  00003C  000272       46C       0  CODE        2
                text17                         000272  00003D  0002AF       4E4       0  CODE        2
                text22                         0002AF  00003E  0002ED       55E       0  CODE        2
                text14                         0002ED  000058  000345       5DA       0  CODE        2
                text19                         000345  000075  0003BA       68A       0  CODE        2
                text24                         0003BA  000091  00044B       774       0  CODE        2
                maintext                       00044B  0000A4  0004EF       896       0  CODE        2
                text18                         0004EF  0000AC  00059B       9DE       0  CODE        2
                text20                         00059B  000257  0007F2       B36       0  CODE        2
                cinit                          0007F2  00000E  000800       FE4       0  CODE        2


UNUSED ADDRESS RANGES

        Name                Unused          Largest block    Delta
        BANK0            0006F-0006F               1           1
        BANK1            000A8-000EF              48           1
        BANK2            00120-0016F              50           1
        BANK3            001A0-001EF              50           1
        BANK4            00220-0024F              30           1
        BIGRAM           02000-0216F             170           1
        CODE             00004-000F6              F3           2
                         00800-00FFF             800
        CONST            00004-000F6              F3           2
                         00800-00FFF             100
        EEDATA           0F000-0F0FF             100           2
        ENTRY            00004-000F6              F3           2
                         00800-00FFF             100
        IDLOC            08000-08003               4           2
        RAM              0006F-0006F               1           1
                         000A8-000EF              48
                         00120-0016F              50
                         001A0-001EF              50
                         00220-0024F              30
        SFR0             00000-0001F              20           1
        SFR1             00080-0009F              20           1
        SFR10            00500-0056F              70           1
        SFR11            00580-005EF              70           1
        SFR12            00600-0066F              70           1
        SFR13            00680-006EF              70           1
        SFR14            00700-0076F              70           1
        SFR15            00780-007EF              70           1
        SFR16            00800-0086F              70           1
        SFR17            00880-008EF              70           1
        SFR18            00900-0096F              70           1
        SFR19            00980-009EF              70           1
        SFR2             00100-0011F              20           1
        SFR20            00A00-00A6F              70           1
        SFR21            00A80-00AEF              70           1
        SFR22            00B00-00B6F              70           1
        SFR23            00B80-00BEF              70           1
        SFR24            00C00-00C6F              70           1
        SFR25            00C80-00CEF              70           1
        SFR26            00D00-00D6F              70           1
        SFR27            00D80-00DEF              70           1
        SFR28            00E00-00E6F              70           1
        SFR29            00E80-00EEF              70           1
        SFR3             00180-0019F              20           1
        SFR30            00F00-00F6F              70           1
        SFR31            00F80-00FEF              70           1
        SFR4             00200-0021F              20           1
        SFR5             00280-002EF              70           1
        SFR6             00300-0036F              70           1
        SFR7             00380-003EF              70           1
        SFR8             00400-0046F              70           1
        SFR9             00480-004EF              70           1
        STACK            02058-0216F             118           1
        STRCODE          00004-000F6              F3           2
                         00800-00FFF             800
        STRING           00004-000F6              F3           2
                         00800-00FFF             100

                                  Symbol Table

?_ADC_GetConversionResult                      cstackCOMMON 00070
?_Ds_Regla_de_3                                cstackBANK0  00045
?__Umul8_16                                    cstackCOMMON 00070
?___flmul                                      cstackBANK0  00020
?___fltol                                      cstackBANK0  0003A
?___lwdiv                                      cstackCOMMON 00070
?___lwmod                                      cstackCOMMON 00070
?___xxtofl                                     cstackCOMMON 00070
Ds_BCD@digito                                  cstackCOMMON 00072
Ds_Encienda_Disp@dispNum                       cstackCOMMON 00072
Ds_Iniciar_displays@d1                         cstackCOMMON 00070
Ds_Iniciar_displays@d2                         cstackCOMMON 00071
Ds_Iniciar_displays@d3                         cstackCOMMON 00072
Ds_Iniciar_displays@dsp                        cstackCOMMON 00076
Ds_Iniciar_displays@tA                         cstackCOMMON 00074
Ds_Iniciar_displays@tE                         cstackCOMMON 00073
Ds_Regla_de_3@Leido                            cstackBANK0  00045
Ds_Regla_de_3@salida                           cstackBANK0  0004B
Ds_Regla_de_3@salidaa                          cstackBANK0  00047
Ds_Separar_Digito@Recibido                     cstackCOMMON 00078
Ds_Separar_Digito@dsp                          cstackCOMMON 0007B
EUSART_SetErrorHandler@interruptHandler        cstackCOMMON 00070
EUSART_SetFramingErrorHandler@interruptHandler cstackCOMMON 00070
EUSART_SetOverrunErrorHandler@interruptHandler cstackCOMMON 00070
EUSART_Write@txData                            cstackCOMMON 00070
Tm_Inicie_periodico@ctp                        cstackCOMMON 00073
Tm_Inicie_periodico@periodo                    cstackCOMMON 00070
_ADCON0                                        (abs)        0009D
_ADCON0bits                                    (abs)        0009D
_ADCON1                                        (abs)        0009E
_ADC_GetConversionResult                       text27       00101
_ADC_Initialize                                text12       00120
_ADC_IsConversionDone                          text26       00119
_ADC_StartConversion                           text25       000F7
_ADRESH                                        (abs)        0009C
_ADRESL                                        (abs)        0009B
_ANSELA                                        (abs)        0018C
_ANSELB                                        (abs)        0018D
_APFCON0                                       (abs)        0011D
_APFCON1                                       (abs)        0011E
_BAUDCON                                       (abs)        0019F
_BORCON                                        (abs)        00116
_Ds_BCD                                        text24       003BA
_Ds_Encienda_Disp                              text23       001D5
_Ds_Iniciar_displays                           text22       002AF
_Ds_Regla_de_3                                 text17       00272
_Ds_Separar_Digito                             text14       002ED
_EUSART_DefaultErrorHandler                    (abs)        00000
_EUSART_DefaultFramingErrorHandler             (abs)        00000
_EUSART_DefaultOverrunErrorHandler             (abs)        00000
_EUSART_ErrorHandler                           bssBANK1     000A0
_EUSART_FramingErrorHandler                    bssBANK1     000A4
_EUSART_Initialize                             text8        001B2
_EUSART_OverrunErrorHandler                    bssBANK1     000A2
_EUSART_SetErrorHandler                        text11       00107
_EUSART_SetFramingErrorHandler                 text10       0010D
_EUSART_SetOverrunErrorHandler                 text9        00113
_EUSART_Write                                  text13       00128
_LATA                                          (abs)        0010C
_LATAbits                                      (abs)        0010C
_LATB                                          (abs)        0010D
_LATBbits                                      (abs)        0010D
_OPTION_REGbits                                (abs)        00095
_OSCCON                                        (abs)        00099
_OSCILLATOR_Initialize                         text7        0013C
_OSCTUNE                                       (abs)        00098
_PIN_MANAGER_Initialize                        text6        0015B
_PIR1bits                                      (abs)        00011
_PIR3bits                                      (abs)        00013
_PLLR                                          (abs)        004D6
_PR6                                           (abs)        0041D
_RCREG                                         (abs)        00199
_RCSTA                                         (abs)        0019D
_RCSTAbits                                     (abs)        0019D
_SPBRGH                                        (abs)        0019C
_SPBRGL                                        (abs)        0019B
_SYSTEM_Initialize                             text3        00148
_T6CON                                         (abs)        0041E
_T6CONbits                                     (abs)        0041E
_TMR6                                          (abs)        0041C
_TMR6_Initialize                               text5        00132
_TMR6_StartTimer                               text2        000FA
_TRISA                                         (abs)        0008C
_TRISB                                         (abs)        0008D
_TXREG                                         (abs)        0019A
_TXSTA                                         (abs)        0019E
_TXSTAbits                                     (abs)        0019E
_Tm_Inicie_periodico                           text1        00171
_WDTCON                                        (abs)        00097
_WDT_Initialize                                text4        000FD
_WPUA                                          (abs)        0020C
_WPUB                                          (abs)        0020D
__Habs1                                        abs1         00000
__Hbank0                                       bank0        00000
__Hbank1                                       bank1        00000
__Hbank10                                      bank10       00000
__Hbank11                                      bank11       00000
__Hbank12                                      bank12       00000
__Hbank13                                      bank13       00000
__Hbank14                                      bank14       00000
__Hbank15                                      bank15       00000
__Hbank16                                      bank16       00000
__Hbank17                                      bank17       00000
__Hbank18                                      bank18       00000
__Hbank19                                      bank19       00000
__Hbank2                                       bank2        00000
__Hbank20                                      bank20       00000
__Hbank21                                      bank21       00000
__Hbank22                                      bank22       00000
__Hbank23                                      bank23       00000
__Hbank24                                      bank24       00000
__Hbank25                                      bank25       00000
__Hbank26                                      bank26       00000
__Hbank27                                      bank27       00000
__Hbank28                                      bank28       00000
__Hbank29                                      bank29       00000
__Hbank3                                       bank3        00000
__Hbank30                                      bank30       00000
__Hbank31                                      bank31       00000
__Hbank4                                       bank4        00000
__Hbank5                                       bank5        00000
__Hbank6                                       bank6        00000
__Hbank7                                       bank7        00000
__Hbank8                                       bank8        00000
__Hbank9                                       bank9        00000
__Hbigram                                      bigram       00000
__HbssBANK0                                    bssBANK0     00000
__HbssBANK1                                    bssBANK1     00000
__Hcinit                                       cinit        00800
__Hclrtext                                     clrtext      00000
__Hcode                                        code         00000
__Hcommon                                      common       00000
__Hconfig                                      config       08009
__HcstackBANK0                                 cstackBANK0  00000
__HcstackCOMMON                                cstackCOMMON 00000
__Heeprom_data                                 eeprom_data  00000
__Hend_init                                    end_init     00004
__Hfunctab                                     functab      00000
__Hinit                                        init         00002
__Hintentry                                    intentry     00002
__Hmaintext                                    maintext     00000
__Hpowerup                                     powerup      00000
__Hram                                         ram          00000
__Hreset_vec                                   reset_vec    00002
__Hsfr0                                        sfr0         00000
__Hsfr1                                        sfr1         00000
__Hsfr10                                       sfr10        00000
__Hsfr11                                       sfr11        00000
__Hsfr12                                       sfr12        00000
__Hsfr13                                       sfr13        00000
__Hsfr14                                       sfr14        00000
__Hsfr15                                       sfr15        00000
__Hsfr16                                       sfr16        00000
__Hsfr17                                       sfr17        00000
__Hsfr18                                       sfr18        00000
__Hsfr19                                       sfr19        00000
__Hsfr2                                        sfr2         00000
__Hsfr20                                       sfr20        00000
__Hsfr21                                       sfr21        00000
__Hsfr22                                       sfr22        00000
__Hsfr23                                       sfr23        00000
__Hsfr24                                       sfr24        00000
__Hsfr25                                       sfr25        00000
__Hsfr26                                       sfr26        00000
__Hsfr27                                       sfr27        00000
__Hsfr28                                       sfr28        00000
__Hsfr29                                       sfr29        00000
__Hsfr3                                        sfr3         00000
__Hsfr30                                       sfr30        00000
__Hsfr31                                       sfr31        00000
__Hsfr4                                        sfr4         00000
__Hsfr5                                        sfr5         00000
__Hsfr6                                        sfr6         00000
__Hsfr7                                        sfr7         00000
__Hsfr8                                        sfr8         00000
__Hsfr9                                        sfr9         00000
__Hspace_0                                     (abs)        00800
__Hspace_1                                     (abs)        000A8
__Hspace_2                                     (abs)        00000
__Hspace_3                                     (abs)        00000
__Hspace_4                                     (abs)        10010
__Hstack                                       stack        00000
__Hstrings                                     strings      00000
__Htext                                        text         00000
__Labs1                                        abs1         00000
__Lbank0                                       bank0        00000
__Lbank1                                       bank1        00000
__Lbank10                                      bank10       00000
__Lbank11                                      bank11       00000
__Lbank12                                      bank12       00000
__Lbank13                                      bank13       00000
__Lbank14                                      bank14       00000
__Lbank15                                      bank15       00000
__Lbank16                                      bank16       00000
__Lbank17                                      bank17       00000
__Lbank18                                      bank18       00000
__Lbank19                                      bank19       00000
__Lbank2                                       bank2        00000
__Lbank20                                      bank20       00000
__Lbank21                                      bank21       00000
__Lbank22                                      bank22       00000
__Lbank23                                      bank23       00000
__Lbank24                                      bank24       00000
__Lbank25                                      bank25       00000
__Lbank26                                      bank26       00000
__Lbank27                                      bank27       00000
__Lbank28                                      bank28       00000
__Lbank29                                      bank29       00000
__Lbank3                                       bank3        00000
__Lbank30                                      bank30       00000
__Lbank31                                      bank31       00000
__Lbank4                                       bank4        00000
__Lbank5                                       bank5        00000
__Lbank6                                       bank6        00000
__Lbank7                                       bank7        00000
__Lbank8                                       bank8        00000
__Lbank9                                       bank9        00000
__Lbigram                                      bigram       00000
__LbssBANK0                                    bssBANK0     00000
__LbssBANK1                                    bssBANK1     00000
__Lcinit                                       cinit        007F2
__Lclrtext                                     clrtext      00000
__Lcode                                        code         00000
__Lcommon                                      common       00000
__Lconfig                                      config       00000
__LcstackBANK0                                 cstackBANK0  00000
__LcstackCOMMON                                cstackCOMMON 00000
__Leeprom_data                                 eeprom_data  00000
__Lend_init                                    end_init     00002
__Lfunctab                                     functab      00000
__Linit                                        init         00002
__Lintentry                                    intentry     00002
__Lmaintext                                    maintext     00000
__Lpowerup                                     powerup      00000
__Lram                                         ram          00000
__Lreset_vec                                   reset_vec    00000
__Lsfr0                                        sfr0         00000
__Lsfr1                                        sfr1         00000
__Lsfr10                                       sfr10        00000
__Lsfr11                                       sfr11        00000
__Lsfr12                                       sfr12        00000
__Lsfr13                                       sfr13        00000
__Lsfr14                                       sfr14        00000
__Lsfr15                                       sfr15        00000
__Lsfr16                                       sfr16        00000
__Lsfr17                                       sfr17        00000
__Lsfr18                                       sfr18        00000
__Lsfr19                                       sfr19        00000
__Lsfr2                                        sfr2         00000
__Lsfr20                                       sfr20        00000
__Lsfr21                                       sfr21        00000
__Lsfr22                                       sfr22        00000
__Lsfr23                                       sfr23        00000
__Lsfr24                                       sfr24        00000
__Lsfr25                                       sfr25        00000
__Lsfr26                                       sfr26        00000
__Lsfr27                                       sfr27        00000
__Lsfr28                                       sfr28        00000
__Lsfr29                                       sfr29        00000
__Lsfr3                                        sfr3         00000
__Lsfr30                                       sfr30        00000
__Lsfr31                                       sfr31        00000
__Lsfr4                                        sfr4         00000
__Lsfr5                                        sfr5         00000
__Lsfr6                                        sfr6         00000
__Lsfr7                                        sfr7         00000
__Lsfr8                                        sfr8         00000
__Lsfr9                                        sfr9         00000
__Lspace_0                                     (abs)        00000
__Lspace_1                                     (abs)        00000
__Lspace_2                                     (abs)        00000
__Lspace_3                                     (abs)        00000
__Lspace_4                                     (abs)        00000
__Lstack                                       stack        00000
__Lstrings                                     strings      00000
__Ltext                                        text         00000
__S0                                           (abs)        00800
__S1                                           (abs)        000A8
__S2                                           (abs)        00000
__S3                                           (abs)        00000
__Umul8_16                                     text21       0018F
__Umul8_16@multiplicand                        cstackCOMMON 00070
__Umul8_16@multiplier                          cstackCOMMON 00078
__Umul8_16@product                             cstackCOMMON 00074
__Umul8_16@word_mpld                           cstackCOMMON 00076
___flmul                                       text20       0059B
___flmul@a                                     cstackBANK0  00024
___flmul@aexp                                  cstackBANK0  00032
___flmul@b                                     cstackBANK0  00020
___flmul@bexp                                  cstackBANK0  00033
___flmul@grs                                   cstackBANK0  0002E
___flmul@prod                                  cstackBANK0  00034
___flmul@sign                                  cstackBANK0  0002D
___flmul@temp                                  cstackBANK0  00038
___fltol                                       text19       00345
___fltol@exp1                                  cstackBANK0  00044
___fltol@f1                                    cstackBANK0  0003A
___fltol@sign1                                 cstackBANK0  00043
___int_sp                                      stack        00000
___latbits                                     (abs)        00001
___lwdiv                                       text16       00236
___lwdiv@counter                               cstackCOMMON 00077
___lwdiv@dividend                              cstackCOMMON 00072
___lwdiv@divisor                               cstackCOMMON 00070
___lwdiv@quotient                              cstackCOMMON 00075
___lwmod                                       text15       00202
___lwmod@counter                               cstackCOMMON 00075
___lwmod@dividend                              cstackCOMMON 00072
___lwmod@divisor                               cstackCOMMON 00070
___sp                                          stack        00000
___stackhi                                     (abs)        0216F
___stacklo                                     (abs)        02058
___xxtofl                                      text18       004EF
___xxtofl@arg                                  cstackCOMMON 0007A
___xxtofl@exp                                  cstackCOMMON 00079
___xxtofl@sign                                 cstackCOMMON 00078
___xxtofl@val                                  cstackCOMMON 00070
__end_of_ADC_GetConversionResult               text27       00107
__end_of_ADC_Initialize                        text12       00128
__end_of_ADC_IsConversionDone                  text26       00120
__end_of_ADC_StartConversion                   text25       000FA
__end_of_Ds_BCD                                text24       0044B
__end_of_Ds_Encienda_Disp                      text23       00202
__end_of_Ds_Iniciar_displays                   text22       002ED
__end_of_Ds_Regla_de_3                         text17       002AF
__end_of_Ds_Separar_Digito                     text14       00345
__end_of_EUSART_Initialize                     text8        001D5
__end_of_EUSART_SetErrorHandler                text11       0010D
__end_of_EUSART_SetFramingErrorHandler         text10       00113
__end_of_EUSART_SetOverrunErrorHandler         text9        00119
__end_of_EUSART_Write                          text13       00132
__end_of_OSCILLATOR_Initialize                 text7        00148
__end_of_PIN_MANAGER_Initialize                text6        00171
__end_of_SYSTEM_Initialize                     text3        0015B
__end_of_TMR6_Initialize                       text5        0013C
__end_of_TMR6_StartTimer                       text2        000FD
__end_of_Tm_Inicie_periodico                   text1        0018F
__end_of_WDT_Initialize                        text4        00101
__end_of__Umul8_16                             text21       001B2
__end_of___flmul                               text20       007F2
__end_of___fltol                               text19       003BA
__end_of___lwdiv                               text16       00272
__end_of___lwmod                               text15       00236
__end_of___xxtofl                              text18       0059B
__end_of__initialization                       cinit        007FD
__end_of_main                                  maintext     004EF
__initialization                               cinit        007F2
__pbssBANK0                                    bssBANK0     0006E
__pbssBANK1                                    bssBANK1     000A0
__pcstackBANK0                                 cstackBANK0  00020
__pcstackCOMMON                                cstackCOMMON 00070
__pmaintext                                    maintext     0044B
__ptext1                                       text1        00171
__ptext10                                      text10       0010D
__ptext11                                      text11       00107
__ptext12                                      text12       00120
__ptext13                                      text13       00128
__ptext14                                      text14       002ED
__ptext15                                      text15       00202
__ptext16                                      text16       00236
__ptext17                                      text17       00272
__ptext18                                      text18       004EF
__ptext19                                      text19       00345
__ptext2                                       text2        000FA
__ptext20                                      text20       0059B
__ptext21                                      text21       0018F
__ptext22                                      text22       002AF
__ptext23                                      text23       001D5
__ptext24                                      text24       003BA
__ptext25                                      text25       000F7
__ptext26                                      text26       00119
__ptext27                                      text27       00101
__ptext3                                       text3        00148
__ptext4                                       text4        000FD
__ptext5                                       text5        00132
__ptext6                                       text6        0015B
__ptext7                                       text7        0013C
__ptext8                                       text8        001B2
__ptext9                                       text9        00113
__size_of_ADC_GetConversionResult              (abs)        00000
__size_of_ADC_Initialize                       (abs)        00000
__size_of_ADC_IsConversionDone                 (abs)        00000
__size_of_ADC_StartConversion                  (abs)        00000
__size_of_Ds_BCD                               (abs)        00000
__size_of_Ds_Encienda_Disp                     (abs)        00000
__size_of_Ds_Iniciar_displays                  (abs)        00000
__size_of_Ds_Regla_de_3                        (abs)        00000
__size_of_Ds_Separar_Digito                    (abs)        00000
__size_of_EUSART_Initialize                    (abs)        00000
__size_of_EUSART_SetErrorHandler               (abs)        00000
__size_of_EUSART_SetFramingErrorHandler        (abs)        00000
__size_of_EUSART_SetOverrunErrorHandler        (abs)        00000
__size_of_EUSART_Write                         (abs)        00000
__size_of_OSCILLATOR_Initialize                (abs)        00000
__size_of_PIN_MANAGER_Initialize               (abs)        00000
__size_of_SYSTEM_Initialize                    (abs)        00000
__size_of_TMR6_Initialize                      (abs)        00000
__size_of_TMR6_StartTimer                      (abs)        00000
__size_of_Tm_Inicie_periodico                  (abs)        00000
__size_of_WDT_Initialize                       (abs)        00000
__size_of__Umul8_16                            (abs)        00000
__size_of___flmul                              (abs)        00000
__size_of___fltol                              (abs)        00000
__size_of___lwdiv                              (abs)        00000
__size_of___lwmod                              (abs)        00000
__size_of___xxtofl                             (abs)        00000
__size_of_main                                 (abs)        00000
_eusartRxLastError                             bssBANK0     0006E
_main                                          maintext     0044B
btemp                                          (abs)        0007E
end_of_initialization                          cinit        007FD
intlevel0                                      functab      00000
intlevel1                                      functab      00000
intlevel2                                      functab      00000
intlevel3                                      functab      00000
intlevel4                                      functab      00000
intlevel5                                      functab      00000
main@ADC_Value                                 cstackBANK0  00051
main@Apagar_7seg                               cstackBANK0  00055
main@Apagar_Tr                                 cstackBANK0  00056
main@My_Display                                cstackBANK0  00066
main@My_Per_1000ms                             cstackBANK0  0005D
main@Pack                                      cstackBANK0  00057
main@Valor_Convertido                          cstackBANK0  00053
reset_vec                                      reset_vec    00000
start                                          init         00002
start_initialization                           cinit        007F2
wtemp0                                         (abs)        0007E


MODULE INFORMATION

Module		Function		Class		Link	Load	Size
eusart.c
		_EUSART_Write  		CODE           	0128	0000	10
		_EUSART_Initialize		CODE           	01B2	0000	35
		_EUSART_SetFramingErrorHandler		CODE           	010D	0000	6
		_EUSART_SetErrorHandler		CODE           	0107	0000	6
		_EUSART_SetOverrunErrorHandler		CODE           	0113	0000	6

eusart.c estimated size: 63

C:\Program Files\Microchip\xc8\v2.32\pic\sources\c99\common\lwmod.c
		___lwmod       		CODE           	0202	0000	52

C:\Program Files\Microchip\xc8\v2.32\pic\sources\c99\common\lwmod.c estimated size: 52

tmr6.c
		_TMR6_StartTimer		CODE           	00FA	0000	3
		_TMR6_Initialize		CODE           	0132	0000	10

tmr6.c estimated size: 13

adc.c
		_ADC_Initialize		CODE           	0120	0000	8
		_ADC_IsConversionDone		CODE           	0119	0000	7
		_ADC_GetConversionResult		CODE           	0101	0000	6
		_ADC_StartConversion		CODE           	00F7	0000	3

adc.c estimated size: 24

nuestrostimers.c
		_Tm_Inicie_periodico		CODE           	0171	0000	30

nuestrostimers.c estimated size: 30

shared
		__initialization		CODE           	07F2	0000	11

shared estimated size: 11

C:\Program Files\Microchip\xc8\v2.32\pic\sources\c99\common\sprcmul.c
		___flmul       		CODE           	059B	0000	599

C:\Program Files\Microchip\xc8\v2.32\pic\sources\c99\common\sprcmul.c estimated size: 599

mcc.c
		_WDT_Initialize		CODE           	00FD	0000	4
		_OSCILLATOR_Initialize		CODE           	013C	0000	12
		_SYSTEM_Initialize		CODE           	0148	0000	19

mcc.c estimated size: 35

C:\Program Files\Microchip\xc8\v2.32\pic\sources\c99\common\Umul8_16.c
		__Umul8_16     		CODE           	018F	0000	35

C:\Program Files\Microchip\xc8\v2.32\pic\sources\c99\common\Umul8_16.c estimated size: 35

C:\Program Files\Microchip\xc8\v2.32\pic\sources\c99\common\lwdiv.c
		___lwdiv       		CODE           	0236	0000	60

C:\Program Files\Microchip\xc8\v2.32\pic\sources\c99\common\lwdiv.c estimated size: 60

C:\Program Files\Microchip\xc8\v2.32\pic\sources\c99\common\fltol.c
		___fltol       		CODE           	0345	0000	117

C:\Program Files\Microchip\xc8\v2.32\pic\sources\c99\common\fltol.c estimated size: 117

C:\Program Files\Microchip\xc8\v2.32\pic\sources\c99\common\xxtofl.c
		___xxtofl      		CODE           	04EF	0000	172

C:\Program Files\Microchip\xc8\v2.32\pic\sources\c99\common\xxtofl.c estimated size: 172

pin_manager.c
		_PIN_MANAGER_Initialize		CODE           	015B	0000	22

pin_manager.c estimated size: 22

main.c
		_main          		CODE           	044B	0000	164

main.c estimated size: 164

displays.c
		_Ds_Separar_Digito		CODE           	02ED	0000	88
		_Ds_Iniciar_displays		CODE           	02AF	0000	62
		_Ds_Regla_de_3 		CODE           	0272	0000	61
		_Ds_Encienda_Disp		CODE           	01D5	0000	45
		_Ds_BCD        		CODE           	03BA	0000	145

displays.c estimated size: 401

